00000000  E8EB0A0000        call qword 0xaf0
00000005  66897C24F6        mov [rsp-0xa],di
0000000A  48897424F8        mov [rsp-0x8],rsi
0000000F  0F015424F6        lgdt [rsp-0xa]
00000014  C3                ret
00000015  66897C24F6        mov [rsp-0xa],di
0000001A  48897424F8        mov [rsp-0x8],rsi
0000001F  0F015C24F6        lidt [rsp-0xa]
00000024  C3                ret
00000025  0F20C0            mov rax,cr0
00000028  C3                ret
00000029  0F22C7            mov cr0,rdi
0000002C  C3                ret
0000002D  90                nop
0000002E  90                nop
0000002F  90                nop
00000030  55                push rbp
00000031  50                push rax
00000032  53                push rbx
00000033  51                push rcx
00000034  52                push rdx
00000035  57                push rdi
00000036  56                push rsi
00000037  4150              push r8
00000039  4151              push r9
0000003B  4152              push r10
0000003D  4153              push r11
0000003F  4154              push r12
00000041  4155              push r13
00000043  4156              push r14
00000045  4157              push r15
00000047  668CD8            mov ax,ds
0000004A  6650              push ax
0000004C  668CC0            mov ax,es
0000004F  6650              push ax
00000051  0FA0              push fs
00000053  0FA8              push gs
00000055  66B81000          mov ax,0x10
00000059  6689C2            mov dx,ax
0000005C  8EC0              mov es,eax
0000005E  8EE0              mov fs,eax
00000060  8EE8              mov gs,eax
00000062  4889E7            mov rdi,rsp
00000065  BE00000000        mov esi,0x0
0000006A  E8310A0000        call qword 0xaa0
0000006F  0FA9              pop gs
00000071  0FA1              pop fs
00000073  6658              pop ax
00000075  8EC0              mov es,eax
00000077  6658              pop ax
00000079  8ED8              mov ds,eax
0000007B  415F              pop r15
0000007D  415E              pop r14
0000007F  415D              pop r13
00000081  415C              pop r12
00000083  415B              pop r11
00000085  415A              pop r10
00000087  4159              pop r9
00000089  4158              pop r8
0000008B  5E                pop rsi
0000008C  5F                pop rdi
0000008D  5A                pop rdx
0000008E  59                pop rcx
0000008F  5B                pop rbx
00000090  58                pop rax
00000091  5D                pop rbp
00000092  48CF              iretq
00000094  55                push rbp
00000095  50                push rax
00000096  53                push rbx
00000097  51                push rcx
00000098  52                push rdx
00000099  57                push rdi
0000009A  56                push rsi
0000009B  4150              push r8
0000009D  4151              push r9
0000009F  4152              push r10
000000A1  4153              push r11
000000A3  4154              push r12
000000A5  4155              push r13
000000A7  4156              push r14
000000A9  4157              push r15
000000AB  668CD8            mov ax,ds
000000AE  6650              push ax
000000B0  668CC0            mov ax,es
000000B3  6650              push ax
000000B5  0FA0              push fs
000000B7  0FA8              push gs
000000B9  66B81000          mov ax,0x10
000000BD  6689C2            mov dx,ax
000000C0  8EC0              mov es,eax
000000C2  8EE0              mov fs,eax
000000C4  8EE8              mov gs,eax
000000C6  4889E7            mov rdi,rsp
000000C9  BE01000000        mov esi,0x1
000000CE  E8CD090000        call qword 0xaa0
000000D3  0FA9              pop gs
000000D5  0FA1              pop fs
000000D7  6658              pop ax
000000D9  8EC0              mov es,eax
000000DB  6658              pop ax
000000DD  8ED8              mov ds,eax
000000DF  415F              pop r15
000000E1  415E              pop r14
000000E3  415D              pop r13
000000E5  415C              pop r12
000000E7  415B              pop r11
000000E9  415A              pop r10
000000EB  4159              pop r9
000000ED  4158              pop r8
000000EF  5E                pop rsi
000000F0  5F                pop rdi
000000F1  5A                pop rdx
000000F2  59                pop rcx
000000F3  5B                pop rbx
000000F4  58                pop rax
000000F5  5D                pop rbp
000000F6  48CF              iretq
000000F8  55                push rbp
000000F9  50                push rax
000000FA  53                push rbx
000000FB  51                push rcx
000000FC  52                push rdx
000000FD  57                push rdi
000000FE  56                push rsi
000000FF  4150              push r8
00000101  4151              push r9
00000103  4152              push r10
00000105  4153              push r11
00000107  4154              push r12
00000109  4155              push r13
0000010B  4156              push r14
0000010D  4157              push r15
0000010F  668CD8            mov ax,ds
00000112  6650              push ax
00000114  668CC0            mov ax,es
00000117  6650              push ax
00000119  0FA0              push fs
0000011B  0FA8              push gs
0000011D  66B81000          mov ax,0x10
00000121  6689C2            mov dx,ax
00000124  8EC0              mov es,eax
00000126  8EE0              mov fs,eax
00000128  8EE8              mov gs,eax
0000012A  4889E7            mov rdi,rsp
0000012D  BE02000000        mov esi,0x2
00000132  E869090000        call qword 0xaa0
00000137  0FA9              pop gs
00000139  0FA1              pop fs
0000013B  6658              pop ax
0000013D  8EC0              mov es,eax
0000013F  6658              pop ax
00000141  8ED8              mov ds,eax
00000143  415F              pop r15
00000145  415E              pop r14
00000147  415D              pop r13
00000149  415C              pop r12
0000014B  415B              pop r11
0000014D  415A              pop r10
0000014F  4159              pop r9
00000151  4158              pop r8
00000153  5E                pop rsi
00000154  5F                pop rdi
00000155  5A                pop rdx
00000156  59                pop rcx
00000157  5B                pop rbx
00000158  58                pop rax
00000159  5D                pop rbp
0000015A  48CF              iretq
0000015C  55                push rbp
0000015D  50                push rax
0000015E  53                push rbx
0000015F  51                push rcx
00000160  52                push rdx
00000161  57                push rdi
00000162  56                push rsi
00000163  4150              push r8
00000165  4151              push r9
00000167  4152              push r10
00000169  4153              push r11
0000016B  4154              push r12
0000016D  4155              push r13
0000016F  4156              push r14
00000171  4157              push r15
00000173  668CD8            mov ax,ds
00000176  6650              push ax
00000178  668CC0            mov ax,es
0000017B  6650              push ax
0000017D  0FA0              push fs
0000017F  0FA8              push gs
00000181  66B81000          mov ax,0x10
00000185  6689C2            mov dx,ax
00000188  8EC0              mov es,eax
0000018A  8EE0              mov fs,eax
0000018C  8EE8              mov gs,eax
0000018E  4889E7            mov rdi,rsp
00000191  BE03000000        mov esi,0x3
00000196  E805090000        call qword 0xaa0
0000019B  0FA9              pop gs
0000019D  0FA1              pop fs
0000019F  6658              pop ax
000001A1  8EC0              mov es,eax
000001A3  6658              pop ax
000001A5  8ED8              mov ds,eax
000001A7  415F              pop r15
000001A9  415E              pop r14
000001AB  415D              pop r13
000001AD  415C              pop r12
000001AF  415B              pop r11
000001B1  415A              pop r10
000001B3  4159              pop r9
000001B5  4158              pop r8
000001B7  5E                pop rsi
000001B8  5F                pop rdi
000001B9  5A                pop rdx
000001BA  59                pop rcx
000001BB  5B                pop rbx
000001BC  58                pop rax
000001BD  5D                pop rbp
000001BE  48CF              iretq
000001C0  55                push rbp
000001C1  50                push rax
000001C2  53                push rbx
000001C3  51                push rcx
000001C4  52                push rdx
000001C5  57                push rdi
000001C6  56                push rsi
000001C7  4150              push r8
000001C9  4151              push r9
000001CB  4152              push r10
000001CD  4153              push r11
000001CF  4154              push r12
000001D1  4155              push r13
000001D3  4156              push r14
000001D5  4157              push r15
000001D7  668CD8            mov ax,ds
000001DA  6650              push ax
000001DC  668CC0            mov ax,es
000001DF  6650              push ax
000001E1  0FA0              push fs
000001E3  0FA8              push gs
000001E5  66B81000          mov ax,0x10
000001E9  6689C2            mov dx,ax
000001EC  8EC0              mov es,eax
000001EE  8EE0              mov fs,eax
000001F0  8EE8              mov gs,eax
000001F2  4889E7            mov rdi,rsp
000001F5  BE04000000        mov esi,0x4
000001FA  E8A1080000        call qword 0xaa0
000001FF  0FA9              pop gs
00000201  0FA1              pop fs
00000203  6658              pop ax
00000205  8EC0              mov es,eax
00000207  6658              pop ax
00000209  8ED8              mov ds,eax
0000020B  415F              pop r15
0000020D  415E              pop r14
0000020F  415D              pop r13
00000211  415C              pop r12
00000213  415B              pop r11
00000215  415A              pop r10
00000217  4159              pop r9
00000219  4158              pop r8
0000021B  5E                pop rsi
0000021C  5F                pop rdi
0000021D  5A                pop rdx
0000021E  59                pop rcx
0000021F  5B                pop rbx
00000220  58                pop rax
00000221  5D                pop rbp
00000222  48CF              iretq
00000224  55                push rbp
00000225  50                push rax
00000226  53                push rbx
00000227  51                push rcx
00000228  52                push rdx
00000229  57                push rdi
0000022A  56                push rsi
0000022B  4150              push r8
0000022D  4151              push r9
0000022F  4152              push r10
00000231  4153              push r11
00000233  4154              push r12
00000235  4155              push r13
00000237  4156              push r14
00000239  4157              push r15
0000023B  668CD8            mov ax,ds
0000023E  6650              push ax
00000240  668CC0            mov ax,es
00000243  6650              push ax
00000245  0FA0              push fs
00000247  0FA8              push gs
00000249  66B81000          mov ax,0x10
0000024D  6689C2            mov dx,ax
00000250  8EC0              mov es,eax
00000252  8EE0              mov fs,eax
00000254  8EE8              mov gs,eax
00000256  4889E7            mov rdi,rsp
00000259  BE05000000        mov esi,0x5
0000025E  E83D080000        call qword 0xaa0
00000263  0FA9              pop gs
00000265  0FA1              pop fs
00000267  6658              pop ax
00000269  8EC0              mov es,eax
0000026B  6658              pop ax
0000026D  8ED8              mov ds,eax
0000026F  415F              pop r15
00000271  415E              pop r14
00000273  415D              pop r13
00000275  415C              pop r12
00000277  415B              pop r11
00000279  415A              pop r10
0000027B  4159              pop r9
0000027D  4158              pop r8
0000027F  5E                pop rsi
00000280  5F                pop rdi
00000281  5A                pop rdx
00000282  59                pop rcx
00000283  5B                pop rbx
00000284  58                pop rax
00000285  5D                pop rbp
00000286  48CF              iretq
00000288  55                push rbp
00000289  50                push rax
0000028A  53                push rbx
0000028B  51                push rcx
0000028C  52                push rdx
0000028D  57                push rdi
0000028E  56                push rsi
0000028F  4150              push r8
00000291  4151              push r9
00000293  4152              push r10
00000295  4153              push r11
00000297  4154              push r12
00000299  4155              push r13
0000029B  4156              push r14
0000029D  4157              push r15
0000029F  668CD8            mov ax,ds
000002A2  6650              push ax
000002A4  668CC0            mov ax,es
000002A7  6650              push ax
000002A9  0FA0              push fs
000002AB  0FA8              push gs
000002AD  66B81000          mov ax,0x10
000002B1  6689C2            mov dx,ax
000002B4  8EC0              mov es,eax
000002B6  8EE0              mov fs,eax
000002B8  8EE8              mov gs,eax
000002BA  4889E7            mov rdi,rsp
000002BD  BE06000000        mov esi,0x6
000002C2  E8D9070000        call qword 0xaa0
000002C7  0FA9              pop gs
000002C9  0FA1              pop fs
000002CB  6658              pop ax
000002CD  8EC0              mov es,eax
000002CF  6658              pop ax
000002D1  8ED8              mov ds,eax
000002D3  415F              pop r15
000002D5  415E              pop r14
000002D7  415D              pop r13
000002D9  415C              pop r12
000002DB  415B              pop r11
000002DD  415A              pop r10
000002DF  4159              pop r9
000002E1  4158              pop r8
000002E3  5E                pop rsi
000002E4  5F                pop rdi
000002E5  5A                pop rdx
000002E6  59                pop rcx
000002E7  5B                pop rbx
000002E8  58                pop rax
000002E9  5D                pop rbp
000002EA  48CF              iretq
000002EC  55                push rbp
000002ED  50                push rax
000002EE  53                push rbx
000002EF  51                push rcx
000002F0  52                push rdx
000002F1  57                push rdi
000002F2  56                push rsi
000002F3  4150              push r8
000002F5  4151              push r9
000002F7  4152              push r10
000002F9  4153              push r11
000002FB  4154              push r12
000002FD  4155              push r13
000002FF  4156              push r14
00000301  4157              push r15
00000303  668CD8            mov ax,ds
00000306  6650              push ax
00000308  668CC0            mov ax,es
0000030B  6650              push ax
0000030D  0FA0              push fs
0000030F  0FA8              push gs
00000311  66B81000          mov ax,0x10
00000315  6689C2            mov dx,ax
00000318  8EC0              mov es,eax
0000031A  8EE0              mov fs,eax
0000031C  8EE8              mov gs,eax
0000031E  4889E7            mov rdi,rsp
00000321  BE07000000        mov esi,0x7
00000326  E875070000        call qword 0xaa0
0000032B  0FA9              pop gs
0000032D  0FA1              pop fs
0000032F  6658              pop ax
00000331  8EC0              mov es,eax
00000333  6658              pop ax
00000335  8ED8              mov ds,eax
00000337  415F              pop r15
00000339  415E              pop r14
0000033B  415D              pop r13
0000033D  415C              pop r12
0000033F  415B              pop r11
00000341  415A              pop r10
00000343  4159              pop r9
00000345  4158              pop r8
00000347  5E                pop rsi
00000348  5F                pop rdi
00000349  5A                pop rdx
0000034A  59                pop rcx
0000034B  5B                pop rbx
0000034C  58                pop rax
0000034D  5D                pop rbp
0000034E  48CF              iretq
00000350  55                push rbp
00000351  50                push rax
00000352  53                push rbx
00000353  51                push rcx
00000354  52                push rdx
00000355  57                push rdi
00000356  56                push rsi
00000357  4150              push r8
00000359  4151              push r9
0000035B  4152              push r10
0000035D  4153              push r11
0000035F  4154              push r12
00000361  4155              push r13
00000363  4156              push r14
00000365  4157              push r15
00000367  668CD8            mov ax,ds
0000036A  6650              push ax
0000036C  668CC0            mov ax,es
0000036F  6650              push ax
00000371  0FA0              push fs
00000373  0FA8              push gs
00000375  66B81000          mov ax,0x10
00000379  6689C2            mov dx,ax
0000037C  8EC0              mov es,eax
0000037E  8EE0              mov fs,eax
00000380  8EE8              mov gs,eax
00000382  4889E7            mov rdi,rsp
00000385  BE08000000        mov esi,0x8
0000038A  E811070000        call qword 0xaa0
0000038F  0FA9              pop gs
00000391  0FA1              pop fs
00000393  6658              pop ax
00000395  8EC0              mov es,eax
00000397  6658              pop ax
00000399  8ED8              mov ds,eax
0000039B  415F              pop r15
0000039D  415E              pop r14
0000039F  415D              pop r13
000003A1  415C              pop r12
000003A3  415B              pop r11
000003A5  415A              pop r10
000003A7  4159              pop r9
000003A9  4158              pop r8
000003AB  5E                pop rsi
000003AC  5F                pop rdi
000003AD  5A                pop rdx
000003AE  59                pop rcx
000003AF  5B                pop rbx
000003B0  58                pop rax
000003B1  5D                pop rbp
000003B2  4883C408          add rsp,byte +0x8
000003B6  48CF              iretq
000003B8  55                push rbp
000003B9  50                push rax
000003BA  53                push rbx
000003BB  51                push rcx
000003BC  52                push rdx
000003BD  57                push rdi
000003BE  56                push rsi
000003BF  4150              push r8
000003C1  4151              push r9
000003C3  4152              push r10
000003C5  4153              push r11
000003C7  4154              push r12
000003C9  4155              push r13
000003CB  4156              push r14
000003CD  4157              push r15
000003CF  668CD8            mov ax,ds
000003D2  6650              push ax
000003D4  668CC0            mov ax,es
000003D7  6650              push ax
000003D9  0FA0              push fs
000003DB  0FA8              push gs
000003DD  66B81000          mov ax,0x10
000003E1  6689C2            mov dx,ax
000003E4  8EC0              mov es,eax
000003E6  8EE0              mov fs,eax
000003E8  8EE8              mov gs,eax
000003EA  4889E7            mov rdi,rsp
000003ED  BE09000000        mov esi,0x9
000003F2  E8A9060000        call qword 0xaa0
000003F7  0FA9              pop gs
000003F9  0FA1              pop fs
000003FB  6658              pop ax
000003FD  8EC0              mov es,eax
000003FF  6658              pop ax
00000401  8ED8              mov ds,eax
00000403  415F              pop r15
00000405  415E              pop r14
00000407  415D              pop r13
00000409  415C              pop r12
0000040B  415B              pop r11
0000040D  415A              pop r10
0000040F  4159              pop r9
00000411  4158              pop r8
00000413  5E                pop rsi
00000414  5F                pop rdi
00000415  5A                pop rdx
00000416  59                pop rcx
00000417  5B                pop rbx
00000418  58                pop rax
00000419  5D                pop rbp
0000041A  48CF              iretq
0000041C  55                push rbp
0000041D  50                push rax
0000041E  53                push rbx
0000041F  51                push rcx
00000420  52                push rdx
00000421  57                push rdi
00000422  56                push rsi
00000423  4150              push r8
00000425  4151              push r9
00000427  4152              push r10
00000429  4153              push r11
0000042B  4154              push r12
0000042D  4155              push r13
0000042F  4156              push r14
00000431  4157              push r15
00000433  668CD8            mov ax,ds
00000436  6650              push ax
00000438  668CC0            mov ax,es
0000043B  6650              push ax
0000043D  0FA0              push fs
0000043F  0FA8              push gs
00000441  66B81000          mov ax,0x10
00000445  6689C2            mov dx,ax
00000448  8EC0              mov es,eax
0000044A  8EE0              mov fs,eax
0000044C  8EE8              mov gs,eax
0000044E  4889E7            mov rdi,rsp
00000451  BE0A000000        mov esi,0xa
00000456  E845060000        call qword 0xaa0
0000045B  0FA9              pop gs
0000045D  0FA1              pop fs
0000045F  6658              pop ax
00000461  8EC0              mov es,eax
00000463  6658              pop ax
00000465  8ED8              mov ds,eax
00000467  415F              pop r15
00000469  415E              pop r14
0000046B  415D              pop r13
0000046D  415C              pop r12
0000046F  415B              pop r11
00000471  415A              pop r10
00000473  4159              pop r9
00000475  4158              pop r8
00000477  5E                pop rsi
00000478  5F                pop rdi
00000479  5A                pop rdx
0000047A  59                pop rcx
0000047B  5B                pop rbx
0000047C  58                pop rax
0000047D  5D                pop rbp
0000047E  4883C408          add rsp,byte +0x8
00000482  48CF              iretq
00000484  55                push rbp
00000485  50                push rax
00000486  53                push rbx
00000487  51                push rcx
00000488  52                push rdx
00000489  57                push rdi
0000048A  56                push rsi
0000048B  4150              push r8
0000048D  4151              push r9
0000048F  4152              push r10
00000491  4153              push r11
00000493  4154              push r12
00000495  4155              push r13
00000497  4156              push r14
00000499  4157              push r15
0000049B  668CD8            mov ax,ds
0000049E  6650              push ax
000004A0  668CC0            mov ax,es
000004A3  6650              push ax
000004A5  0FA0              push fs
000004A7  0FA8              push gs
000004A9  66B81000          mov ax,0x10
000004AD  6689C2            mov dx,ax
000004B0  8EC0              mov es,eax
000004B2  8EE0              mov fs,eax
000004B4  8EE8              mov gs,eax
000004B6  4889E7            mov rdi,rsp
000004B9  BE0B000000        mov esi,0xb
000004BE  E8DD050000        call qword 0xaa0
000004C3  0FA9              pop gs
000004C5  0FA1              pop fs
000004C7  6658              pop ax
000004C9  8EC0              mov es,eax
000004CB  6658              pop ax
000004CD  8ED8              mov ds,eax
000004CF  415F              pop r15
000004D1  415E              pop r14
000004D3  415D              pop r13
000004D5  415C              pop r12
000004D7  415B              pop r11
000004D9  415A              pop r10
000004DB  4159              pop r9
000004DD  4158              pop r8
000004DF  5E                pop rsi
000004E0  5F                pop rdi
000004E1  5A                pop rdx
000004E2  59                pop rcx
000004E3  5B                pop rbx
000004E4  58                pop rax
000004E5  5D                pop rbp
000004E6  4883C408          add rsp,byte +0x8
000004EA  48CF              iretq
000004EC  55                push rbp
000004ED  50                push rax
000004EE  53                push rbx
000004EF  51                push rcx
000004F0  52                push rdx
000004F1  57                push rdi
000004F2  56                push rsi
000004F3  4150              push r8
000004F5  4151              push r9
000004F7  4152              push r10
000004F9  4153              push r11
000004FB  4154              push r12
000004FD  4155              push r13
000004FF  4156              push r14
00000501  4157              push r15
00000503  668CD8            mov ax,ds
00000506  6650              push ax
00000508  668CC0            mov ax,es
0000050B  6650              push ax
0000050D  0FA0              push fs
0000050F  0FA8              push gs
00000511  66B81000          mov ax,0x10
00000515  6689C2            mov dx,ax
00000518  8EC0              mov es,eax
0000051A  8EE0              mov fs,eax
0000051C  8EE8              mov gs,eax
0000051E  4889E7            mov rdi,rsp
00000521  BE0C000000        mov esi,0xc
00000526  E875050000        call qword 0xaa0
0000052B  0FA9              pop gs
0000052D  0FA1              pop fs
0000052F  6658              pop ax
00000531  8EC0              mov es,eax
00000533  6658              pop ax
00000535  8ED8              mov ds,eax
00000537  415F              pop r15
00000539  415E              pop r14
0000053B  415D              pop r13
0000053D  415C              pop r12
0000053F  415B              pop r11
00000541  415A              pop r10
00000543  4159              pop r9
00000545  4158              pop r8
00000547  5E                pop rsi
00000548  5F                pop rdi
00000549  5A                pop rdx
0000054A  59                pop rcx
0000054B  5B                pop rbx
0000054C  58                pop rax
0000054D  5D                pop rbp
0000054E  4883C408          add rsp,byte +0x8
00000552  48CF              iretq
00000554  55                push rbp
00000555  50                push rax
00000556  53                push rbx
00000557  51                push rcx
00000558  52                push rdx
00000559  57                push rdi
0000055A  56                push rsi
0000055B  4150              push r8
0000055D  4151              push r9
0000055F  4152              push r10
00000561  4153              push r11
00000563  4154              push r12
00000565  4155              push r13
00000567  4156              push r14
00000569  4157              push r15
0000056B  668CD8            mov ax,ds
0000056E  6650              push ax
00000570  668CC0            mov ax,es
00000573  6650              push ax
00000575  0FA0              push fs
00000577  0FA8              push gs
00000579  66B81000          mov ax,0x10
0000057D  6689C2            mov dx,ax
00000580  8EC0              mov es,eax
00000582  8EE0              mov fs,eax
00000584  8EE8              mov gs,eax
00000586  4889E7            mov rdi,rsp
00000589  BE0D000000        mov esi,0xd
0000058E  E80D050000        call qword 0xaa0
00000593  0FA9              pop gs
00000595  0FA1              pop fs
00000597  6658              pop ax
00000599  8EC0              mov es,eax
0000059B  6658              pop ax
0000059D  8ED8              mov ds,eax
0000059F  415F              pop r15
000005A1  415E              pop r14
000005A3  415D              pop r13
000005A5  415C              pop r12
000005A7  415B              pop r11
000005A9  415A              pop r10
000005AB  4159              pop r9
000005AD  4158              pop r8
000005AF  5E                pop rsi
000005B0  5F                pop rdi
000005B1  5A                pop rdx
000005B2  59                pop rcx
000005B3  5B                pop rbx
000005B4  58                pop rax
000005B5  5D                pop rbp
000005B6  4883C408          add rsp,byte +0x8
000005BA  48CF              iretq
000005BC  55                push rbp
000005BD  50                push rax
000005BE  53                push rbx
000005BF  51                push rcx
000005C0  52                push rdx
000005C1  57                push rdi
000005C2  56                push rsi
000005C3  4150              push r8
000005C5  4151              push r9
000005C7  4152              push r10
000005C9  4153              push r11
000005CB  4154              push r12
000005CD  4155              push r13
000005CF  4156              push r14
000005D1  4157              push r15
000005D3  668CD8            mov ax,ds
000005D6  6650              push ax
000005D8  668CC0            mov ax,es
000005DB  6650              push ax
000005DD  0FA0              push fs
000005DF  0FA8              push gs
000005E1  66B81000          mov ax,0x10
000005E5  6689C2            mov dx,ax
000005E8  8EC0              mov es,eax
000005EA  8EE0              mov fs,eax
000005EC  8EE8              mov gs,eax
000005EE  4889E7            mov rdi,rsp
000005F1  BE0E000000        mov esi,0xe
000005F6  E8A5040000        call qword 0xaa0
000005FB  0FA9              pop gs
000005FD  0FA1              pop fs
000005FF  6658              pop ax
00000601  8EC0              mov es,eax
00000603  6658              pop ax
00000605  8ED8              mov ds,eax
00000607  415F              pop r15
00000609  415E              pop r14
0000060B  415D              pop r13
0000060D  415C              pop r12
0000060F  415B              pop r11
00000611  415A              pop r10
00000613  4159              pop r9
00000615  4158              pop r8
00000617  5E                pop rsi
00000618  5F                pop rdi
00000619  5A                pop rdx
0000061A  59                pop rcx
0000061B  5B                pop rbx
0000061C  58                pop rax
0000061D  5D                pop rbp
0000061E  4883C408          add rsp,byte +0x8
00000622  48CF              iretq
00000624  55                push rbp
00000625  50                push rax
00000626  53                push rbx
00000627  51                push rcx
00000628  52                push rdx
00000629  57                push rdi
0000062A  56                push rsi
0000062B  4150              push r8
0000062D  4151              push r9
0000062F  4152              push r10
00000631  4153              push r11
00000633  4154              push r12
00000635  4155              push r13
00000637  4156              push r14
00000639  4157              push r15
0000063B  668CD8            mov ax,ds
0000063E  6650              push ax
00000640  668CC0            mov ax,es
00000643  6650              push ax
00000645  0FA0              push fs
00000647  0FA8              push gs
00000649  66B81000          mov ax,0x10
0000064D  6689C2            mov dx,ax
00000650  8EC0              mov es,eax
00000652  8EE0              mov fs,eax
00000654  8EE8              mov gs,eax
00000656  4889E7            mov rdi,rsp
00000659  BE0F000000        mov esi,0xf
0000065E  E83D040000        call qword 0xaa0
00000663  0FA9              pop gs
00000665  0FA1              pop fs
00000667  6658              pop ax
00000669  8EC0              mov es,eax
0000066B  6658              pop ax
0000066D  8ED8              mov ds,eax
0000066F  415F              pop r15
00000671  415E              pop r14
00000673  415D              pop r13
00000675  415C              pop r12
00000677  415B              pop r11
00000679  415A              pop r10
0000067B  4159              pop r9
0000067D  4158              pop r8
0000067F  5E                pop rsi
00000680  5F                pop rdi
00000681  5A                pop rdx
00000682  59                pop rcx
00000683  5B                pop rbx
00000684  58                pop rax
00000685  5D                pop rbp
00000686  48CF              iretq
00000688  55                push rbp
00000689  50                push rax
0000068A  53                push rbx
0000068B  51                push rcx
0000068C  52                push rdx
0000068D  57                push rdi
0000068E  56                push rsi
0000068F  4150              push r8
00000691  4151              push r9
00000693  4152              push r10
00000695  4153              push r11
00000697  4154              push r12
00000699  4155              push r13
0000069B  4156              push r14
0000069D  4157              push r15
0000069F  668CD8            mov ax,ds
000006A2  6650              push ax
000006A4  668CC0            mov ax,es
000006A7  6650              push ax
000006A9  0FA0              push fs
000006AB  0FA8              push gs
000006AD  66B81000          mov ax,0x10
000006B1  6689C2            mov dx,ax
000006B4  8EC0              mov es,eax
000006B6  8EE0              mov fs,eax
000006B8  8EE8              mov gs,eax
000006BA  4889E7            mov rdi,rsp
000006BD  BE10000000        mov esi,0x10
000006C2  E8D9030000        call qword 0xaa0
000006C7  0FA9              pop gs
000006C9  0FA1              pop fs
000006CB  6658              pop ax
000006CD  8EC0              mov es,eax
000006CF  6658              pop ax
000006D1  8ED8              mov ds,eax
000006D3  415F              pop r15
000006D5  415E              pop r14
000006D7  415D              pop r13
000006D9  415C              pop r12
000006DB  415B              pop r11
000006DD  415A              pop r10
000006DF  4159              pop r9
000006E1  4158              pop r8
000006E3  5E                pop rsi
000006E4  5F                pop rdi
000006E5  5A                pop rdx
000006E6  59                pop rcx
000006E7  5B                pop rbx
000006E8  58                pop rax
000006E9  5D                pop rbp
000006EA  48CF              iretq
000006EC  55                push rbp
000006ED  50                push rax
000006EE  53                push rbx
000006EF  51                push rcx
000006F0  52                push rdx
000006F1  57                push rdi
000006F2  56                push rsi
000006F3  4150              push r8
000006F5  4151              push r9
000006F7  4152              push r10
000006F9  4153              push r11
000006FB  4154              push r12
000006FD  4155              push r13
000006FF  4156              push r14
00000701  4157              push r15
00000703  668CD8            mov ax,ds
00000706  6650              push ax
00000708  668CC0            mov ax,es
0000070B  6650              push ax
0000070D  0FA0              push fs
0000070F  0FA8              push gs
00000711  66B81000          mov ax,0x10
00000715  6689C2            mov dx,ax
00000718  8EC0              mov es,eax
0000071A  8EE0              mov fs,eax
0000071C  8EE8              mov gs,eax
0000071E  4889E7            mov rdi,rsp
00000721  BE11000000        mov esi,0x11
00000726  E875030000        call qword 0xaa0
0000072B  0FA9              pop gs
0000072D  0FA1              pop fs
0000072F  6658              pop ax
00000731  8EC0              mov es,eax
00000733  6658              pop ax
00000735  8ED8              mov ds,eax
00000737  415F              pop r15
00000739  415E              pop r14
0000073B  415D              pop r13
0000073D  415C              pop r12
0000073F  415B              pop r11
00000741  415A              pop r10
00000743  4159              pop r9
00000745  4158              pop r8
00000747  5E                pop rsi
00000748  5F                pop rdi
00000749  5A                pop rdx
0000074A  59                pop rcx
0000074B  5B                pop rbx
0000074C  58                pop rax
0000074D  5D                pop rbp
0000074E  4883C408          add rsp,byte +0x8
00000752  48CF              iretq
00000754  55                push rbp
00000755  50                push rax
00000756  53                push rbx
00000757  51                push rcx
00000758  52                push rdx
00000759  57                push rdi
0000075A  56                push rsi
0000075B  4150              push r8
0000075D  4151              push r9
0000075F  4152              push r10
00000761  4153              push r11
00000763  4154              push r12
00000765  4155              push r13
00000767  4156              push r14
00000769  4157              push r15
0000076B  668CD8            mov ax,ds
0000076E  6650              push ax
00000770  668CC0            mov ax,es
00000773  6650              push ax
00000775  0FA0              push fs
00000777  0FA8              push gs
00000779  66B81000          mov ax,0x10
0000077D  6689C2            mov dx,ax
00000780  8EC0              mov es,eax
00000782  8EE0              mov fs,eax
00000784  8EE8              mov gs,eax
00000786  4889E7            mov rdi,rsp
00000789  BE12000000        mov esi,0x12
0000078E  E80D030000        call qword 0xaa0
00000793  0FA9              pop gs
00000795  0FA1              pop fs
00000797  6658              pop ax
00000799  8EC0              mov es,eax
0000079B  6658              pop ax
0000079D  8ED8              mov ds,eax
0000079F  415F              pop r15
000007A1  415E              pop r14
000007A3  415D              pop r13
000007A5  415C              pop r12
000007A7  415B              pop r11
000007A9  415A              pop r10
000007AB  4159              pop r9
000007AD  4158              pop r8
000007AF  5E                pop rsi
000007B0  5F                pop rdi
000007B1  5A                pop rdx
000007B2  59                pop rcx
000007B3  5B                pop rbx
000007B4  58                pop rax
000007B5  5D                pop rbp
000007B6  48CF              iretq
000007B8  55                push rbp
000007B9  50                push rax
000007BA  53                push rbx
000007BB  51                push rcx
000007BC  52                push rdx
000007BD  57                push rdi
000007BE  56                push rsi
000007BF  4150              push r8
000007C1  4151              push r9
000007C3  4152              push r10
000007C5  4153              push r11
000007C7  4154              push r12
000007C9  4155              push r13
000007CB  4156              push r14
000007CD  4157              push r15
000007CF  668CD8            mov ax,ds
000007D2  6650              push ax
000007D4  668CC0            mov ax,es
000007D7  6650              push ax
000007D9  0FA0              push fs
000007DB  0FA8              push gs
000007DD  66B81000          mov ax,0x10
000007E1  6689C2            mov dx,ax
000007E4  8EC0              mov es,eax
000007E6  8EE0              mov fs,eax
000007E8  8EE8              mov gs,eax
000007EA  4889E7            mov rdi,rsp
000007ED  BE13000000        mov esi,0x13
000007F2  E8A9020000        call qword 0xaa0
000007F7  0FA9              pop gs
000007F9  0FA1              pop fs
000007FB  6658              pop ax
000007FD  8EC0              mov es,eax
000007FF  6658              pop ax
00000801  8ED8              mov ds,eax
00000803  415F              pop r15
00000805  415E              pop r14
00000807  415D              pop r13
00000809  415C              pop r12
0000080B  415B              pop r11
0000080D  415A              pop r10
0000080F  4159              pop r9
00000811  4158              pop r8
00000813  5E                pop rsi
00000814  5F                pop rdi
00000815  5A                pop rdx
00000816  59                pop rcx
00000817  5B                pop rbx
00000818  58                pop rax
00000819  5D                pop rbp
0000081A  48CF              iretq
0000081C  55                push rbp
0000081D  50                push rax
0000081E  53                push rbx
0000081F  51                push rcx
00000820  52                push rdx
00000821  57                push rdi
00000822  56                push rsi
00000823  4150              push r8
00000825  4151              push r9
00000827  4152              push r10
00000829  4153              push r11
0000082B  4154              push r12
0000082D  4155              push r13
0000082F  4156              push r14
00000831  4157              push r15
00000833  668CD8            mov ax,ds
00000836  6650              push ax
00000838  668CC0            mov ax,es
0000083B  6650              push ax
0000083D  0FA0              push fs
0000083F  0FA8              push gs
00000841  66B81000          mov ax,0x10
00000845  6689C2            mov dx,ax
00000848  8EC0              mov es,eax
0000084A  8EE0              mov fs,eax
0000084C  8EE8              mov gs,eax
0000084E  4889E7            mov rdi,rsp
00000851  48C7C6FFFFFFFF    mov rsi,0xffffffffffffffff
00000858  E843020000        call qword 0xaa0
0000085D  0FA9              pop gs
0000085F  0FA1              pop fs
00000861  6658              pop ax
00000863  8EC0              mov es,eax
00000865  6658              pop ax
00000867  8ED8              mov ds,eax
00000869  415F              pop r15
0000086B  415E              pop r14
0000086D  415D              pop r13
0000086F  415C              pop r12
00000871  415B              pop r11
00000873  415A              pop r10
00000875  4159              pop r9
00000877  4158              pop r8
00000879  5E                pop rsi
0000087A  5F                pop rdi
0000087B  5A                pop rdx
0000087C  59                pop rcx
0000087D  5B                pop rbx
0000087E  58                pop rax
0000087F  5D                pop rbp
00000880  48CF              iretq
00000882  90                nop
00000883  90                nop
00000884  90                nop
00000885  90                nop
00000886  90                nop
00000887  90                nop
00000888  90                nop
00000889  90                nop
0000088A  90                nop
0000088B  90                nop
0000088C  90                nop
0000088D  90                nop
0000088E  90                nop
0000088F  90                nop
00000890  89F0              mov eax,esi
00000892  66897702          mov [rdi+0x2],si
00000896  C1EE18            shr esi,byte 0x18
00000899  C1E810            shr eax,byte 0x10
0000089C  40887707          mov [rdi+0x7],sil
000008A0  884704            mov [rdi+0x4],al
000008A3  31C0              xor eax,eax
000008A5  81FAFEFF0F00      cmp edx,0xffffe
000008AB  7608              jna 0x8b5
000008AD  C1EA0C            shr edx,byte 0xc
000008B0  B801000000        mov eax,0x1
000008B5  668917            mov [rdi],dx
000008B8  C1EA10            shr edx,byte 0x10
000008BB  C1E007            shl eax,byte 0x7
000008BE  83E20F            and edx,byte +0xf
000008C1  884F05            mov [rdi+0x5],cl
000008C4  09D0              or eax,edx
000008C6  83C820            or eax,byte +0x20
000008C9  884706            mov [rdi+0x6],al
000008CC  C3                ret
000008CD  90                nop
000008CE  90                nop
000008CF  90                nop
000008D0  83E103            and ecx,byte +0x3
000008D3  4183E10F          and r9d,byte +0xf
000008D7  4889F0            mov rax,rsi
000008DA  C1E105            shl ecx,byte 0x5
000008DD  668937            mov [rdi],si
000008E0  48C1E810          shr rax,byte 0x10
000008E4  4409C9            or ecx,r9d
000008E7  48C1EE20          shr rsi,byte 0x20
000008EB  4183E007          and r8d,byte +0x7
000008EF  83C980            or ecx,byte -0x80
000008F2  66894706          mov [rdi+0x6],ax
000008F6  897708            mov [rdi+0x8],esi
000008F9  66895702          mov [rdi+0x2],dx
000008FD  44884704          mov [rdi+0x4],r8b
00000901  884F05            mov [rdi+0x5],cl
00000904  C7470C00000000    mov dword [rdi+0xc],0x0
0000090B  C3                ret
0000090C  90                nop
0000090D  90                nop
0000090E  90                nop
0000090F  90                nop
00000910  4883EC30          sub rsp,byte +0x30
00000914  83EF01            sub edi,byte +0x1
00000917  48C7442408581E50  mov qword [rsp+0x8],0x501e58
         -00
00000920  48C74424106C1E50  mov qword [rsp+0x10],0x501e6c
         -00
00000929  48C7442418821E50  mov qword [rsp+0x18],0x501e82
         -00
00000932  48C7442420981E50  mov qword [rsp+0x20],0x501e98
         -00
0000093B  48C7442428AE1E50  mov qword [rsp+0x28],0x501eae
         -00
00000944  488B44FC08        mov rax,[rsp+rdi*8+0x8]
00000949  4883C430          add rsp,byte +0x30
0000094D  C3                ret
0000094E  6690              xchg ax,ax
00000950  53                push rbx
00000951  31C0              xor eax,eax
00000953  4883EC10          sub rsp,byte +0x10
00000957  E8C9F6FFFF        call qword 0x25
0000095C  4889C7            mov rdi,rax
0000095F  4889C3            mov rbx,rax
00000962  4881CF00000060    or rdi,0x60000000
00000969  E8BBF6FFFF        call qword 0x29
0000096E  48C7442408000070  mov qword [rsp+0x8],0x700000
         -00
00000977  488B442408        mov rax,[rsp+0x8]
0000097C  483DFFFFFF2F      cmp rax,0x2fffffff
00000982  7729              ja 0x9ad
00000984  488B542408        mov rdx,[rsp+0x8]
00000989  8B02              mov eax,[rdx]
0000098B  890424            mov [rsp],eax
0000098E  C702CDAB3412      mov dword [rdx],0x1234abcd
00000994  8B0A              mov ecx,[rdx]
00000996  F7D1              not ecx
00000998  890A              mov [rdx],ecx
0000099A  8B02              mov eax,[rdx]
0000099C  3D3254CBED        cmp eax,0xedcb5432
000009A1  747D              jz 0xa20
000009A3  0F1F440000        nop dword [rax+rax+0x0]
000009A8  8B0C24            mov ecx,[rsp]
000009AB  890A              mov [rdx],ecx
000009AD  488B542408        mov rdx,[rsp+0x8]
000009B2  8B42FC            mov eax,[rdx-0x4]
000009B5  89442404          mov [rsp+0x4],eax
000009B9  C742FCCDAB3412    mov dword [rdx-0x4],0x1234abcd
000009C0  8B4AFC            mov ecx,[rdx-0x4]
000009C3  F7D1              not ecx
000009C5  894AFC            mov [rdx-0x4],ecx
000009C8  8B42FC            mov eax,[rdx-0x4]
000009CB  3D3254CBED        cmp eax,0xedcb5432
000009D0  742E              jz 0xa00
000009D2  8B442404          mov eax,[rsp+0x4]
000009D6  8942FC            mov [rdx-0x4],eax
000009D9  488B442408        mov rax,[rsp+0x8]
000009DE  482D00001000      sub rax,0x100000
000009E4  4889442408        mov [rsp+0x8],rax
000009E9  4889DF            mov rdi,rbx
000009EC  E838F6FFFF        call qword 0x29
000009F1  488B442408        mov rax,[rsp+0x8]
000009F6  4883C410          add rsp,byte +0x10
000009FA  5B                pop rbx
000009FB  C3                ret
000009FC  0F1F4000          nop dword [rax+0x0]
00000A00  8B42FC            mov eax,[rdx-0x4]
00000A03  F7D0              not eax
00000A05  8942FC            mov [rdx-0x4],eax
00000A08  8B42FC            mov eax,[rdx-0x4]
00000A0B  3DCDAB3412        cmp eax,0x1234abcd
00000A10  75C0              jnz 0x9d2
00000A12  8B442404          mov eax,[rsp+0x4]
00000A16  8942FC            mov [rdx-0x4],eax
00000A19  EBCE              jmp short 0x9e9
00000A1B  0F1F440000        nop dword [rax+rax+0x0]
00000A20  8B02              mov eax,[rdx]
00000A22  F7D0              not eax
00000A24  8902              mov [rdx],eax
00000A26  8B02              mov eax,[rdx]
00000A28  3DCDAB3412        cmp eax,0x1234abcd
00000A2D  0F8575FFFFFF      jnz qword 0x9a8
00000A33  EB14              jmp short 0xa49
00000A35  8B0A              mov ecx,[rdx]
00000A37  F7D1              not ecx
00000A39  890A              mov [rdx],ecx
00000A3B  8B0A              mov ecx,[rdx]
00000A3D  81F9CDAB3412      cmp ecx,0x1234abcd
00000A43  0F855FFFFFFF      jnz qword 0x9a8
00000A49  8B0424            mov eax,[rsp]
00000A4C  8902              mov [rdx],eax
00000A4E  488B442408        mov rax,[rsp+0x8]
00000A53  480500001000      add rax,0x100000
00000A59  4889442408        mov [rsp+0x8],rax
00000A5E  488B442408        mov rax,[rsp+0x8]
00000A63  483DFFFFFF2F      cmp rax,0x2fffffff
00000A69  0F873EFFFFFF      ja qword 0x9ad
00000A6F  488B542408        mov rdx,[rsp+0x8]
00000A74  8B0A              mov ecx,[rdx]
00000A76  890C24            mov [rsp],ecx
00000A79  C702CDAB3412      mov dword [rdx],0x1234abcd
00000A7F  8B0A              mov ecx,[rdx]
00000A81  F7D1              not ecx
00000A83  890A              mov [rdx],ecx
00000A85  8B0A              mov ecx,[rdx]
00000A87  81F93254CBED      cmp ecx,0xedcb5432
00000A8D  0F8515FFFFFF      jnz qword 0x9a8
00000A93  EBA0              jmp short 0xa35
00000A95  90                nop
00000A96  90                nop
00000A97  90                nop
00000A98  90                nop
00000A99  90                nop
00000A9A  90                nop
00000A9B  90                nop
00000A9C  90                nop
00000A9D  90                nop
00000A9E  90                nop
00000A9F  90                nop
00000AA0  8B3C2504802600    mov edi,[0x268004]
00000AA7  81EF88000000      sub edi,0x88
00000AAD  83FEFF            cmp esi,byte -0x1
00000AB0  741E              jz 0xad0
00000AB2  4189F0            mov r8d,esi
00000AB5  B9C21E5000        mov ecx,0x501ec2
00000ABA  BA00F80000        mov edx,0xf800
00000ABF  31F6              xor esi,esi
00000AC1  31C0              xor eax,eax
00000AC3  E9D8030000        jmp qword 0xea0
00000AC8  0F1F840000000000  nop dword [rax+rax+0x0]
00000AD0  B9D61E5000        mov ecx,0x501ed6
00000AD5  BA00F80000        mov edx,0xf800
00000ADA  31F6              xor esi,esi
00000ADC  E96F030000        jmp qword 0xe50
00000AE1  90                nop
00000AE2  90                nop
00000AE3  90                nop
00000AE4  90                nop
00000AE5  90                nop
00000AE6  90                nop
00000AE7  90                nop
00000AE8  90                nop
00000AE9  90                nop
00000AEA  90                nop
00000AEB  90                nop
00000AEC  90                nop
00000AED  90                nop
00000AEE  90                nop
00000AEF  90                nop
00000AF0  53                push rbx
00000AF1  B99A000000        mov ecx,0x9a
00000AF6  BAFFFFFFFF        mov edx,0xffffffff
00000AFB  31F6              xor esi,esi
00000AFD  BF08606000        mov edi,0x606008
00000B02  48C7042500606000  mov qword [0x606000],0x0
         -00000000
00000B0E  E87DFDFFFF        call qword 0x890
00000B13  B992000000        mov ecx,0x92
00000B18  BAFFFFFFFF        mov edx,0xffffffff
00000B1D  31F6              xor esi,esi
00000B1F  BF10606000        mov edi,0x606010
00000B24  BB00606200        mov ebx,0x626000
00000B29  E862FDFFFF        call qword 0x890
00000B2E  BAE7FF0000        mov edx,0xffe7
00000B33  31F6              xor esi,esi
00000B35  BF18606000        mov edi,0x606018
00000B3A  E821040000        call qword 0xf60
00000B3F  BE00606000        mov esi,0x606000
00000B44  BFFFFF0000        mov edi,0xffff
00000B49  E8B7F4FFFF        call qword 0x5
00000B4E  4531C0            xor r8d,r8d
00000B51  31C9              xor ecx,ecx
00000B53  4889DF            mov rdi,rbx
00000B56  41B90E000000      mov r9d,0xe
00000B5C  BA08000000        mov edx,0x8
00000B61  BE1C085000        mov esi,0x50081c
00000B66  4883C310          add rbx,byte +0x10
00000B6A  E861FDFFFF        call qword 0x8d0
00000B6F  4881FB00706200    cmp rbx,0x627000
00000B76  75D6              jnz 0xb4e
00000B78  BE00606200        mov esi,0x626000
00000B7D  BF00100000        mov edi,0x1000
00000B82  E88EF4FFFF        call qword 0x15
00000B87  B9E81E5000        mov ecx,0x501ee8
00000B8C  BAFF070000        mov edx,0x7ff
00000B91  BE64000000        mov esi,0x64
00000B96  31FF              xor edi,edi
00000B98  E8B3020000        call qword 0xe50
00000B9D  FB                sti
00000B9E  CD77              int 0x77
00000BA0  FA                cli
00000BA1  B9FD1E5000        mov ecx,0x501efd
00000BA6  BAFF070000        mov edx,0x7ff
00000BAB  BE74000000        mov esi,0x74
00000BB0  31FF              xor edi,edi
00000BB2  E899020000        call qword 0xe50
00000BB7  660F1F8400000000  nop word [rax+rax+0x0]
         -00
00000BC0  B9101F5000        mov ecx,0x501f10
00000BC5  BAFF070000        mov edx,0x7ff
00000BCA  31F6              xor esi,esi
00000BCC  31FF              xor edi,edi
00000BCE  E87D020000        call qword 0xe50
00000BD3  F4                hlt
00000BD4  EBEA              jmp short 0xbc0
00000BD6  662E0F1F84000000  nop word [cs:rax+rax+0x0]
         -0000
00000BE0  8B0425FC0F0000    mov eax,[0xffc]
00000BE7  85C0              test eax,eax
00000BE9  0F8486000000      jz qword 0xc75
00000BEF  4157              push r15
00000BF1  83E801            sub eax,byte +0x1
00000BF4  4156              push r14
00000BF6  4C8D744003        lea r14,[rax+rax*2+0x3]
00000BFB  4155              push r13
00000BFD  49C1E603          shl r14,byte 0x3
00000C01  4189FD            mov r13d,edi
00000C04  4154              push r12
00000C06  55                push rbp
00000C07  89F5              mov ebp,esi
00000C09  53                push rbx
00000C0A  31DB              xor ebx,ebx
00000C0C  4883EC28          sub rsp,byte +0x28
00000C10  448BA310100000    mov r12d,[rbx+0x1010]
00000C17  448BBB14100000    mov r15d,[rbx+0x1014]
00000C1E  4489E7            mov edi,r12d
00000C21  E8EAFCFFFF        call qword 0x910
00000C26  4C8B8300100000    mov r8,[rbx+0x1000]
00000C2D  89EE              mov esi,ebp
00000C2F  B9201F5000        mov ecx,0x501f20
00000C34  BAFF070000        mov edx,0x7ff
00000C39  4489EF            mov edi,r13d
00000C3C  83C510            add ebp,byte +0x10
00000C3F  4D89C1            mov r9,r8
00000C42  4C038B08100000    add r9,[rbx+0x1008]
00000C49  48890424          mov [rsp],rax
00000C4D  44897C2410        mov [rsp+0x10],r15d
00000C52  31C0              xor eax,eax
00000C54  4489642408        mov [rsp+0x8],r12d
00000C59  4883C318          add rbx,byte +0x18
00000C5D  E83E020000        call qword 0xea0
00000C62  4C39F3            cmp rbx,r14
00000C65  75A9              jnz 0xc10
00000C67  4883C428          add rsp,byte +0x28
00000C6B  5B                pop rbx
00000C6C  5D                pop rbp
00000C6D  415C              pop r12
00000C6F  415D              pop r13
00000C71  415E              pop r14
00000C73  415F              pop r15
00000C75  F3C3              rep ret
00000C77  90                nop
00000C78  90                nop
00000C79  90                nop
00000C7A  90                nop
00000C7B  90                nop
00000C7C  90                nop
00000C7D  90                nop
00000C7E  90                nop
00000C7F  90                nop
00000C80  4156              push r14
00000C82  39CE              cmp esi,ecx
00000C84  4155              push r13
00000C86  4154              push r12
00000C88  55                push rbp
00000C89  89CD              mov ebp,ecx
00000C8B  53                push rbx
00000C8C  7F3D              jg 0xccb
00000C8E  29FA              sub edx,edi
00000C90  4189FC            mov r12d,edi
00000C93  450FB7E8          movzx r13d,r8w
00000C97  4C63F2            movsxd r14,edx
00000C9A  89F3              mov ebx,esi
00000C9C  0F1F4000          nop dword [rax+0x0]
00000CA0  8B142504802600    mov edx,[0x268004]
00000CA7  488B04250C802600  mov rax,[0x26800c]
00000CAF  4489EE            mov esi,r13d
00000CB2  0FAFD3            imul edx,ebx
00000CB5  83C301            add ebx,byte +0x1
00000CB8  4401E2            add edx,r12d
00000CBB  488D3C50          lea rdi,[rax+rdx*2]
00000CBF  4C89F2            mov rdx,r14
00000CC2  E889020000        call qword 0xf50
00000CC7  39DD              cmp ebp,ebx
00000CC9  7DD5              jnl 0xca0
00000CCB  5B                pop rbx
00000CCC  5D                pop rbp
00000CCD  415C              pop r12
00000CCF  415D              pop r13
00000CD1  415E              pop r14
00000CD3  C3                ret
00000CD4  6666662E0F1F8400  nop word [cs:rax+rax+0x0]
         -00000000
00000CE0  4156              push r14
00000CE2  41B810000000      mov r8d,0x10
00000CE8  448D7601          lea r14d,[rsi+0x1]
00000CEC  448D5E06          lea r11d,[rsi+0x6]
00000CF0  448D5607          lea r10d,[rsi+0x7]
00000CF4  4155              push r13
00000CF6  448D6E02          lea r13d,[rsi+0x2]
00000CFA  4154              push r12
00000CFC  448D6603          lea r12d,[rsi+0x3]
00000D00  55                push rbp
00000D01  8D6E04            lea ebp,[rsi+0x4]
00000D04  53                push rbx
00000D05  8D5E05            lea ebx,[rsi+0x5]
00000D08  E902010000        jmp qword 0xe0f
00000D0D  0F1F00            nop dword [rax]
00000D10  A840              test al,0x40
00000D12  741F              jz 0xd33
00000D14  448B0C2504802600  mov r9d,[0x268004]
00000D1C  488B04250C802600  mov rax,[0x26800c]
00000D24  440FAFCA          imul r9d,edx
00000D28  4501F1            add r9d,r14d
00000D2B  6642890C48        mov [rax+r9*2],cx
00000D30  0FB607            movzx eax,byte [rdi]
00000D33  A820              test al,0x20
00000D35  741F              jz 0xd56
00000D37  448B0C2504802600  mov r9d,[0x268004]
00000D3F  488B04250C802600  mov rax,[0x26800c]
00000D47  440FAFCA          imul r9d,edx
00000D4B  4501E9            add r9d,r13d
00000D4E  6642890C48        mov [rax+r9*2],cx
00000D53  0FB607            movzx eax,byte [rdi]
00000D56  A810              test al,0x10
00000D58  741F              jz 0xd79
00000D5A  448B0C2504802600  mov r9d,[0x268004]
00000D62  488B04250C802600  mov rax,[0x26800c]
00000D6A  440FAFCA          imul r9d,edx
00000D6E  4501E1            add r9d,r12d
00000D71  6642890C48        mov [rax+r9*2],cx
00000D76  0FB607            movzx eax,byte [rdi]
00000D79  A808              test al,0x8
00000D7B  741F              jz 0xd9c
00000D7D  448B0C2504802600  mov r9d,[0x268004]
00000D85  488B04250C802600  mov rax,[0x26800c]
00000D8D  440FAFCA          imul r9d,edx
00000D91  4101E9            add r9d,ebp
00000D94  6642890C48        mov [rax+r9*2],cx
00000D99  0FB607            movzx eax,byte [rdi]
00000D9C  A804              test al,0x4
00000D9E  741F              jz 0xdbf
00000DA0  448B0C2504802600  mov r9d,[0x268004]
00000DA8  488B04250C802600  mov rax,[0x26800c]
00000DB0  440FAFCA          imul r9d,edx
00000DB4  4101D9            add r9d,ebx
00000DB7  6642890C48        mov [rax+r9*2],cx
00000DBC  0FB607            movzx eax,byte [rdi]
00000DBF  A802              test al,0x2
00000DC1  741F              jz 0xde2
00000DC3  448B0C2504802600  mov r9d,[0x268004]
00000DCB  488B04250C802600  mov rax,[0x26800c]
00000DD3  440FAFCA          imul r9d,edx
00000DD7  4501D9            add r9d,r11d
00000DDA  6642890C48        mov [rax+r9*2],cx
00000DDF  0FB607            movzx eax,byte [rdi]
00000DE2  A801              test al,0x1
00000DE4  741C              jz 0xe02
00000DE6  448B0C2504802600  mov r9d,[0x268004]
00000DEE  488B04250C802600  mov rax,[0x26800c]
00000DF6  440FAFCA          imul r9d,edx
00000DFA  4501D1            add r9d,r10d
00000DFD  6642890C48        mov [rax+r9*2],cx
00000E02  4883C701          add rdi,byte +0x1
00000E06  83C201            add edx,byte +0x1
00000E09  4183E801          sub r8d,byte +0x1
00000E0D  7431              jz 0xe40
00000E0F  0FB607            movzx eax,byte [rdi]
00000E12  84C0              test al,al
00000E14  0F89F6FEFFFF      jns qword 0xd10
00000E1A  448B0C2504802600  mov r9d,[0x268004]
00000E22  488B04250C802600  mov rax,[0x26800c]
00000E2A  440FAFCA          imul r9d,edx
00000E2E  4101F1            add r9d,esi
00000E31  6642890C48        mov [rax+r9*2],cx
00000E36  0FB607            movzx eax,byte [rdi]
00000E39  E9D2FEFFFF        jmp qword 0xd10
00000E3E  6690              xchg ax,ax
00000E40  5B                pop rbx
00000E41  5D                pop rbp
00000E42  415C              pop r12
00000E44  415D              pop r13
00000E46  415E              pop r14
00000E48  C3                ret
00000E49  0F1F8000000000    nop dword [rax+0x0]
00000E50  4155              push r13
00000E52  4189F5            mov r13d,esi
00000E55  4154              push r12
00000E57  440FB7E2          movzx r12d,dx
00000E5B  55                push rbp
00000E5C  89FD              mov ebp,edi
00000E5E  53                push rbx
00000E5F  0FBE01            movsx eax,byte [rcx]
00000E62  488D5901          lea rbx,[rcx+0x1]
00000E66  84C0              test al,al
00000E68  742D              jz 0xe97
00000E6A  660F1F440000      nop word [rax+rax+0x0]
00000E70  C1E004            shl eax,byte 0x4
00000E73  89EE              mov esi,ebp
00000E75  4489E1            mov ecx,r12d
00000E78  4898              cdqe
00000E7A  4489EA            mov edx,r13d
00000E7D  83C508            add ebp,byte +0x8
00000E80  488DB800245000    lea rdi,[rax+0x502400]
00000E87  E854FEFFFF        call qword 0xce0
00000E8C  0FBE03            movsx eax,byte [rbx]
00000E8F  4883C301          add rbx,byte +0x1
00000E93  84C0              test al,al
00000E95  75D9              jnz 0xe70
00000E97  5B                pop rbx
00000E98  5D                pop rbp
00000E99  415C              pop r12
00000E9B  415D              pop r13
00000E9D  C3                ret
00000E9E  6690              xchg ax,ax
00000EA0  4155              push r13
00000EA2  4189F5            mov r13d,esi
00000EA5  4889CE            mov rsi,rcx
00000EA8  4154              push r12
00000EAA  440FB7E2          movzx r12d,dx
00000EAE  55                push rbp
00000EAF  89FD              mov ebp,edi
00000EB1  53                push rbx
00000EB2  4881EC58040000    sub rsp,0x458
00000EB9  488D842480040000  lea rax,[rsp+0x480]
00000EC1  488D542408        lea rdx,[rsp+0x8]
00000EC6  488D7C2420        lea rdi,[rsp+0x20]
00000ECB  4C89842440040000  mov [rsp+0x440],r8
00000ED3  4C898C2448040000  mov [rsp+0x448],r9
00000EDB  488D5C2421        lea rbx,[rsp+0x21]
00000EE0  4889442410        mov [rsp+0x10],rax
00000EE5  488D842420040000  lea rax,[rsp+0x420]
00000EED  C744240820000000  mov dword [rsp+0x8],0x20
00000EF5  4889442418        mov [rsp+0x18],rax
00000EFA  E811060000        call qword 0x1510
00000EFF  0FBE442420        movsx eax,byte [rsp+0x20]
00000F04  84C0              test al,al
00000F06  742F              jz 0xf37
00000F08  0F1F840000000000  nop dword [rax+rax+0x0]
00000F10  C1E004            shl eax,byte 0x4
00000F13  89EE              mov esi,ebp
00000F15  4489E1            mov ecx,r12d
00000F18  4898              cdqe
00000F1A  4489EA            mov edx,r13d
00000F1D  83C508            add ebp,byte +0x8
00000F20  488DB800245000    lea rdi,[rax+0x502400]
00000F27  E8B4FDFFFF        call qword 0xce0
00000F2C  0FBE03            movsx eax,byte [rbx]
00000F2F  4883C301          add rbx,byte +0x1
00000F33  84C0              test al,al
00000F35  75D9              jnz 0xf10
00000F37  4881C458040000    add rsp,0x458
00000F3E  5B                pop rbx
00000F3F  5D                pop rbp
00000F40  415C              pop r12
00000F42  415D              pop r13
00000F44  C3                ret
00000F45  90                nop
00000F46  90                nop
00000F47  90                nop
00000F48  90                nop
00000F49  90                nop
00000F4A  90                nop
00000F4B  90                nop
00000F4C  90                nop
00000F4D  90                nop
00000F4E  90                nop
00000F4F  90                nop
00000F50  4889F0            mov rax,rsi
00000F53  4889D1            mov rcx,rdx
00000F56  FC                cld
00000F57  F366AB            rep stosw
00000F5A  4889F8            mov rax,rdi
00000F5D  C3                ret
00000F5E  90                nop
00000F5F  90                nop
00000F60  4889F0            mov rax,rsi
00000F63  4889D1            mov rcx,rdx
00000F66  FC                cld
00000F67  F3AA              rep stosb
00000F69  4889F8            mov rax,rdi
00000F6C  C3                ret
00000F6D  90                nop
00000F6E  90                nop
00000F6F  90                nop
00000F70  4157              push r15
00000F72  B8481F5000        mov eax,0x501f48
00000F77  41BB701F5000      mov r11d,0x501f70
00000F7D  4156              push r14
00000F7F  4155              push r13
00000F81  4154              push r12
00000F83  55                push rbp
00000F84  89D5              mov ebp,edx
00000F86  53                push rbx
00000F87  4881ECA8000000    sub rsp,0xa8
00000F8E  41F6C140          test r9b,0x40
00000F92  4C0F44D8          cmovz r11,rax
00000F96  4489C8            mov eax,r9d
00000F99  83E0FE            and eax,byte -0x2
00000F9C  41F6C110          test r9b,0x10
00000FA0  440F45C8          cmovnz r9d,eax
00000FA4  8D42FE            lea eax,[rdx-0x2]
00000FA7  83F822            cmp eax,byte +0x22
00000FAA  0F871C050000      ja qword 0x14cc
00000FB0  4489C8            mov eax,r9d
00000FB3  4489CA            mov edx,r9d
00000FB6  83E001            and eax,byte +0x1
00000FB9  83F801            cmp eax,byte +0x1
00000FBC  19DB              sbb ebx,ebx
00000FBE  83E3F0            and ebx,byte -0x10
00000FC1  83C330            add ebx,byte +0x30
00000FC4  83E202            and edx,byte +0x2
00000FC7  7427              jz 0xff0
00000FC9  4885F6            test rsi,rsi
00000FCC  0F88C9040000      js qword 0x149b
00000FD2  41F6C104          test r9b,0x4
00000FD6  0F85AE040000      jnz qword 0x148a
00000FDC  41F6C108          test r9b,0x8
00000FE0  740E              jz 0xff0
00000FE2  83E901            sub ecx,byte +0x1
00000FE5  4889F0            mov rax,rsi
00000FE8  41BC20000000      mov r12d,0x20
00000FEE  EB06              jmp short 0xff6
00000FF0  4889F0            mov rax,rsi
00000FF3  4531E4            xor r12d,r12d
00000FF6  4589CE            mov r14d,r9d
00000FF9  4183E620          and r14d,byte +0x20
00000FFD  7416              jz 0x1015
00000FFF  83FD10            cmp ebp,byte +0x10
00001002  0F84A7040000      jz qword 0x14af
00001008  4531D2            xor r10d,r10d
0000100B  83FD08            cmp ebp,byte +0x8
0000100E  410F94C2          setz r10b
00001012  4429D1            sub ecx,r10d
00001015  4885C0            test rax,rax
00001018  0F85FD030000      jnz qword 0x141b
0000101E  C644242030        mov byte [rsp+0x20],0x30
00001023  4531DB            xor r11d,r11d
00001026  41BA01000000      mov r10d,0x1
0000102C  4539C2            cmp r10d,r8d
0000102F  4189CD            mov r13d,ecx
00001032  450F4DC2          cmovnl r8d,r10d
00001036  4529C5            sub r13d,r8d
00001039  41F6C111          test r9b,0x11
0000103D  0F85CE000000      jnz qword 0x1111
00001043  418D45FF          lea eax,[r13-0x1]
00001047  4585ED            test r13d,r13d
0000104A  89442408          mov [rsp+0x8],eax
0000104E  0F8E99040000      jng qword 0x14ed
00001054  4889FA            mov rdx,rdi
00001057  48F7DA            neg rdx
0000105A  83E207            and edx,byte +0x7
0000105D  4139D5            cmp r13d,edx
00001060  410F46D5          cmovna edx,r13d
00001064  4183FD0A          cmp r13d,byte +0xa
00001068  410F46D5          cmovna edx,r13d
0000106C  85D2              test edx,edx
0000106E  0F8481040000      jz qword 0x14f5
00001074  89C6              mov esi,eax
00001076  4889F8            mov rax,rdi
00001079  0F1F8000000000    nop dword [rax+0x0]
00001080  C60020            mov byte [rax],0x20
00001083  4883C001          add rax,byte +0x1
00001087  83EE01            sub esi,byte +0x1
0000108A  89C1              mov ecx,eax
0000108C  29F9              sub ecx,edi
0000108E  39D1              cmp ecx,edx
00001090  72EE              jc 0x1080
00001092  4139D5            cmp r13d,edx
00001095  746A              jz 0x1101
00001097  4129D5            sub r13d,edx
0000109A  89D1              mov ecx,edx
0000109C  4489EA            mov edx,r13d
0000109F  44896C2414        mov [rsp+0x14],r13d
000010A4  C1EA03            shr edx,byte 0x3
000010A7  448D3CD500000000  lea r15d,[rdx*8+0x0]
000010AF  4585FF            test r15d,r15d
000010B2  743C              jz 0x10f0
000010B4  4C8D2C0F          lea r13,[rdi+rcx]
000010B8  48890424          mov [rsp],rax
000010BC  31C9              xor ecx,ecx
000010BE  6690              xchg ax,ax
000010C0  48B8202020202020  mov rax,0x2020202020202020
         -2020
000010CA  498944CD00        mov [r13+rcx*8+0x0],rax
000010CF  4883C101          add rcx,byte +0x1
000010D3  39CA              cmp edx,ecx
000010D5  77E9              ja 0x10c0
000010D7  488B0424          mov rax,[rsp]
000010DB  4489FA            mov edx,r15d
000010DE  4429FE            sub esi,r15d
000010E1  4801D0            add rax,rdx
000010E4  44397C2414        cmp [rsp+0x14],r15d
000010E9  7416              jz 0x1101
000010EB  0F1F440000        nop dword [rax+rax+0x0]
000010F0  83EE01            sub esi,byte +0x1
000010F3  C60020            mov byte [rax],0x20
000010F6  4883C001          add rax,byte +0x1
000010FA  8D5601            lea edx,[rsi+0x1]
000010FD  85D2              test edx,edx
000010FF  7FEF              jg 0x10f0
00001101  4863442408        movsxd rax,dword [rsp+0x8]
00001106  41BDFFFFFFFF      mov r13d,0xffffffff
0000110C  488D7C0701        lea rdi,[rdi+rax+0x1]
00001111  4584E4            test r12b,r12b
00001114  7407              jz 0x111d
00001116  448827            mov [rdi],r12b
00001119  4883C701          add rdi,byte +0x1
0000111D  4585F6            test r14d,r14d
00001120  7412              jz 0x1134
00001122  83FD08            cmp ebp,byte +0x8
00001125  0F8495030000      jz qword 0x14c0
0000112B  83FD10            cmp ebp,byte +0x10
0000112E  0F84A1030000      jz qword 0x14d5
00001134  4183E110          and r9d,byte +0x10
00001138  0F8540010000      jnz qword 0x127e
0000113E  4585ED            test r13d,r13d
00001141  458D65FF          lea r12d,[r13-0x1]
00001145  0F8E9A030000      jng qword 0x14e5
0000114B  4889FE            mov rsi,rdi
0000114E  4489E2            mov edx,r12d
00001151  4889F8            mov rax,rdi
00001154  48F7DE            neg rsi
00001157  83E607            and esi,byte +0x7
0000115A  4139F5            cmp r13d,esi
0000115D  410F42F5          cmovc esi,r13d
00001161  4183FD0A          cmp r13d,byte +0xa
00001165  410F46F5          cmovna esi,r13d
00001169  85F6              test esi,esi
0000116B  741D              jz 0x118a
0000116D  0F1F00            nop dword [rax]
00001170  8818              mov [rax],bl
00001172  4883C001          add rax,byte +0x1
00001176  83EA01            sub edx,byte +0x1
00001179  89C1              mov ecx,eax
0000117B  29F9              sub ecx,edi
0000117D  39F1              cmp ecx,esi
0000117F  72EF              jc 0x1170
00001181  4139F5            cmp r13d,esi
00001184  0F84E6000000      jz qword 0x1270
0000118A  4129F5            sub r13d,esi
0000118D  89F1              mov ecx,esi
0000118F  4489EE            mov esi,r13d
00001192  48894C2408        mov [rsp+0x8],rcx
00001197  C1EE03            shr esi,byte 0x3
0000119A  8D2CF500000000    lea ebp,[rsi*8+0x0]
000011A1  85ED              test ebp,ebp
000011A3  0F84B7000000      jz qword 0x1260
000011A9  31C9              xor ecx,ecx
000011AB  440FB6CB          movzx r9d,bl
000011AF  49BFFFFFFF00FFFF  mov r15,0xffffffff00ffffff
         -FFFF
000011B9  88D9              mov cl,bl
000011BB  4D89CE            mov r14,r9
000011BE  88DD              mov ch,bl
000011C0  49C1E610          shl r14,byte 0x10
000011C4  4881E1FFFF00FF    and rcx,0xffffffffff00ffff
000011CB  4C09F1            or rcx,r14
000011CE  4D89CE            mov r14,r9
000011D1  49C1E618          shl r14,byte 0x18
000011D5  4C21F9            and rcx,r15
000011D8  49BFFFFFFFFF00FF  mov r15,0xffffff00ffffffff
         -FFFF
000011E2  4C09F1            or rcx,r14
000011E5  4D89CE            mov r14,r9
000011E8  49C1E620          shl r14,byte 0x20
000011EC  4C21F9            and rcx,r15
000011EF  49BFFFFFFFFFFF00  mov r15,0xffff00ffffffffff
         -FFFF
000011F9  4C09F1            or rcx,r14
000011FC  4D89CE            mov r14,r9
000011FF  49C1E628          shl r14,byte 0x28
00001203  4C21F9            and rcx,r15
00001206  49BFFFFFFFFFFFFF  mov r15,0xff00ffffffffffff
         -00FF
00001210  4C09F1            or rcx,r14
00001213  4D89CE            mov r14,r9
00001216  49C1E138          shl r9,byte 0x38
0000121A  49C1E630          shl r14,byte 0x30
0000121E  4C21F9            and rcx,r15
00001221  4C09F1            or rcx,r14
00001224  49BEFFFFFFFFFFFF  mov r14,0xffffffffffffff
         -FF00
0000122E  4C21F1            and rcx,r14
00001231  4C8B742408        mov r14,[rsp+0x8]
00001236  4C09C9            or rcx,r9
00001239  4531C9            xor r9d,r9d
0000123C  4901FE            add r14,rdi
0000123F  90                nop
00001240  4B890CCE          mov [r14+r9*8],rcx
00001244  4983C101          add r9,byte +0x1
00001248  4439CE            cmp esi,r9d
0000124B  77F3              ja 0x1240
0000124D  89E9              mov ecx,ebp
0000124F  29EA              sub edx,ebp
00001251  4801C8            add rax,rcx
00001254  4139ED            cmp r13d,ebp
00001257  7417              jz 0x1270
00001259  0F1F8000000000    nop dword [rax+0x0]
00001260  83EA01            sub edx,byte +0x1
00001263  8818              mov [rax],bl
00001265  4883C001          add rax,byte +0x1
00001269  8D4A01            lea ecx,[rdx+0x1]
0000126C  85C9              test ecx,ecx
0000126E  7FF0              jg 0x1260
00001270  4D63E4            movsxd r12,r12d
00001273  41BDFFFFFFFF      mov r13d,0xffffffff
00001279  4A8D7C2701        lea rdi,[rdi+r12+0x1]
0000127E  4539C2            cmp r10d,r8d
00001281  418D50FF          lea edx,[r8-0x1]
00001285  0F8DA0000000      jnl qword 0x132b
0000128B  4889FE            mov rsi,rdi
0000128E  4529D0            sub r8d,r10d
00001291  4889F8            mov rax,rdi
00001294  48F7DE            neg rsi
00001297  83E607            and esi,byte +0x7
0000129A  4139F0            cmp r8d,esi
0000129D  410F42F0          cmovc esi,r8d
000012A1  4183F80A          cmp r8d,byte +0xa
000012A5  410F46F0          cmovna esi,r8d
000012A9  85F6              test esi,esi
000012AB  741A              jz 0x12c7
000012AD  0F1F00            nop dword [rax]
000012B0  C60030            mov byte [rax],0x30
000012B3  4883C001          add rax,byte +0x1
000012B7  83EA01            sub edx,byte +0x1
000012BA  89C1              mov ecx,eax
000012BC  29F9              sub ecx,edi
000012BE  39F1              cmp ecx,esi
000012C0  72EE              jc 0x12b0
000012C2  4139F0            cmp r8d,esi
000012C5  745B              jz 0x1322
000012C7  4489C5            mov ebp,r8d
000012CA  4189F1            mov r9d,esi
000012CD  29F5              sub ebp,esi
000012CF  89EE              mov esi,ebp
000012D1  C1EE03            shr esi,byte 0x3
000012D4  8D1CF500000000    lea ebx,[rsi*8+0x0]
000012DB  85DB              test ebx,ebx
000012DD  7431              jz 0x1310
000012DF  4901F9            add r9,rdi
000012E2  31C9              xor ecx,ecx
000012E4  0F1F4000          nop dword [rax+0x0]
000012E8  49BC303030303030  mov r12,0x3030303030303030
         -3030
000012F2  4D8924C9          mov [r9+rcx*8],r12
000012F6  4883C101          add rcx,byte +0x1
000012FA  39CE              cmp esi,ecx
000012FC  77EA              ja 0x12e8
000012FE  89D9              mov ecx,ebx
00001300  29DA              sub edx,ebx
00001302  4801C8            add rax,rcx
00001305  39DD              cmp ebp,ebx
00001307  7419              jz 0x1322
00001309  0F1F8000000000    nop dword [rax+0x0]
00001310  83EA01            sub edx,byte +0x1
00001313  C60030            mov byte [rax],0x30
00001316  4883C001          add rax,byte +0x1
0000131A  8D4A01            lea ecx,[rdx+0x1]
0000131D  4139CA            cmp r10d,ecx
00001320  7CEE              jl 0x1310
00001322  4183E801          sub r8d,byte +0x1
00001326  4A8D7C0701        lea rdi,[rdi+r8+0x1]
0000132B  4489D8            mov eax,r11d
0000132E  4889FA            mov rdx,rdi
00001331  0F1F8000000000    nop dword [rax+0x0]
00001338  4863C8            movsxd rcx,eax
0000133B  83E801            sub eax,byte +0x1
0000133E  0FB64C0C20        movzx ecx,byte [rsp+rcx+0x20]
00001343  880A              mov [rdx],cl
00001345  8D4801            lea ecx,[rax+0x1]
00001348  4883C201          add rdx,byte +0x1
0000134C  85C9              test ecx,ecx
0000134E  7FE8              jg 0x1338
00001350  31C0              xor eax,eax
00001352  4585DB            test r11d,r11d
00001355  458D55FF          lea r10d,[r13-0x1]
00001359  410F49C3          cmovns eax,r11d
0000135D  4585ED            test r13d,r13d
00001360  4898              cdqe
00001362  488D440701        lea rax,[rdi+rax+0x1]
00001367  0F8E9C000000      jng qword 0x1409
0000136D  4889C7            mov rdi,rax
00001370  4489D1            mov ecx,r10d
00001373  4889C2            mov rdx,rax
00001376  48F7DF            neg rdi
00001379  83E707            and edi,byte +0x7
0000137C  4139FD            cmp r13d,edi
0000137F  410F42FD          cmovc edi,r13d
00001383  4183FD0A          cmp r13d,byte +0xa
00001387  410F46FD          cmovna edi,r13d
0000138B  85FF              test edi,edi
0000138D  7418              jz 0x13a7
0000138F  90                nop
00001390  C60220            mov byte [rdx],0x20
00001393  4883C201          add rdx,byte +0x1
00001397  83E901            sub ecx,byte +0x1
0000139A  89D6              mov esi,edx
0000139C  29C6              sub esi,eax
0000139E  39F7              cmp edi,esi
000013A0  77EE              ja 0x1390
000013A2  4139FD            cmp r13d,edi
000013A5  745A              jz 0x1401
000013A7  4129FD            sub r13d,edi
000013AA  4189F8            mov r8d,edi
000013AD  4489EF            mov edi,r13d
000013B0  C1EF03            shr edi,byte 0x3
000013B3  448D0CFD00000000  lea r9d,[rdi*8+0x0]
000013BB  4585C9            test r9d,r9d
000013BE  7430              jz 0x13f0
000013C0  4901C0            add r8,rax
000013C3  31F6              xor esi,esi
000013C5  0F1F00            nop dword [rax]
000013C8  49BB202020202020  mov r11,0x2020202020202020
         -2020
000013D2  4D891CF0          mov [r8+rsi*8],r11
000013D6  4883C601          add rsi,byte +0x1
000013DA  39F7              cmp edi,esi
000013DC  77EA              ja 0x13c8
000013DE  4489CE            mov esi,r9d
000013E1  4429C9            sub ecx,r9d
000013E4  4801F2            add rdx,rsi
000013E7  4539CD            cmp r13d,r9d
000013EA  7415              jz 0x1401
000013EC  0F1F4000          nop dword [rax+0x0]
000013F0  83E901            sub ecx,byte +0x1
000013F3  C60220            mov byte [rdx],0x20
000013F6  4883C201          add rdx,byte +0x1
000013FA  8D7101            lea esi,[rcx+0x1]
000013FD  85F6              test esi,esi
000013FF  7FEF              jg 0x13f0
00001401  4D63D2            movsxd r10,r10d
00001404  4A8D441001        lea rax,[rax+r10+0x1]
00001409  4881C4A8000000    add rsp,0xa8
00001410  5B                pop rbx
00001411  5D                pop rbp
00001412  415C              pop r12
00001414  415D              pop r13
00001416  415E              pop r14
00001418  415F              pop r15
0000141A  C3                ret
0000141B  85D2              test edx,edx
0000141D  7438              jz 0x1457
0000141F  488D742420        lea rsi,[rsp+0x20]
00001424  4C63ED            movsxd r13,ebp
00001427  4531D2            xor r10d,r10d
0000142A  660F1F440000      nop word [rax+rax+0x0]
00001430  4889C2            mov rdx,rax
00001433  4183C201          add r10d,byte +0x1
00001437  48C1FA3F          sar rdx,byte 0x3f
0000143B  49F7FD            idiv r13
0000143E  410FB61413        movzx edx,byte [r11+rdx]
00001443  8816              mov [rsi],dl
00001445  4883C601          add rsi,byte +0x1
00001449  4885C0            test rax,rax
0000144C  75E2              jnz 0x1430
0000144E  458D5AFF          lea r11d,[r10-0x1]
00001452  E9D5FBFFFF        jmp qword 0x102c
00001457  4889F0            mov rax,rsi
0000145A  488D742420        lea rsi,[rsp+0x20]
0000145F  4C63ED            movsxd r13,ebp
00001462  4531D2            xor r10d,r10d
00001465  0F1F00            nop dword [rax]
00001468  31D2              xor edx,edx
0000146A  4183C201          add r10d,byte +0x1
0000146E  49F7F5            div r13
00001471  410FB61413        movzx edx,byte [r11+rdx]
00001476  8816              mov [rsi],dl
00001478  4883C601          add rsi,byte +0x1
0000147C  4885C0            test rax,rax
0000147F  75E7              jnz 0x1468
00001481  458D5AFF          lea r11d,[r10-0x1]
00001485  E9A2FBFFFF        jmp qword 0x102c
0000148A  83E901            sub ecx,byte +0x1
0000148D  4889F0            mov rax,rsi
00001490  41BC2B000000      mov r12d,0x2b
00001496  E95BFBFFFF        jmp qword 0xff6
0000149B  4889F0            mov rax,rsi
0000149E  83E901            sub ecx,byte +0x1
000014A1  41BC2D000000      mov r12d,0x2d
000014A7  48F7D8            neg rax
000014AA  E947FBFFFF        jmp qword 0xff6
000014AF  83E902            sub ecx,byte +0x2
000014B2  4885C0            test rax,rax
000014B5  0F8560FFFFFF      jnz qword 0x141b
000014BB  E95EFBFFFF        jmp qword 0x101e
000014C0  C60730            mov byte [rdi],0x30
000014C3  4883C701          add rdi,byte +0x1
000014C7  E968FCFFFF        jmp qword 0x1134
000014CC  31C0              xor eax,eax
000014CE  6690              xchg ax,ax
000014D0  E934FFFFFF        jmp qword 0x1409
000014D5  C60730            mov byte [rdi],0x30
000014D8  C6470178          mov byte [rdi+0x1],0x78
000014DC  4883C702          add rdi,byte +0x2
000014E0  E94FFCFFFF        jmp qword 0x1134
000014E5  4589E5            mov r13d,r12d
000014E8  E991FDFFFF        jmp qword 0x127e
000014ED  4189C5            mov r13d,eax
000014F0  E91CFCFFFF        jmp qword 0x1111
000014F5  8B742408          mov esi,[rsp+0x8]
000014F9  4889F8            mov rax,rdi
000014FC  E996FBFFFF        jmp qword 0x1097
00001501  6666666666662E0F  nop word [cs:rax+rax+0x0]
         -1F840000000000
00001510  4157              push r15
00001512  4156              push r14
00001514  4155              push r13
00001516  4154              push r12
00001518  55                push rbp
00001519  4889FD            mov rbp,rdi
0000151C  53                push rbx
0000151D  4883EC28          sub rsp,byte +0x28
00001521  0FB606            movzx eax,byte [rsi]
00001524  84C0              test al,al
00001526  0F8405080000      jz qword 0x1d31
0000152C  4989D6            mov r14,rdx
0000152F  4989FD            mov r13,rdi
00001532  41BC981F5000      mov r12d,0x501f98
00001538  EB21              jmp short 0x155b
0000153A  660F1F440000      nop word [rax+rax+0x0]
00001540  41884500          mov [r13+0x0],al
00001544  4889F3            mov rbx,rsi
00001547  4983C501          add r13,byte +0x1
0000154B  0FB64301          movzx eax,byte [rbx+0x1]
0000154F  488D7301          lea rsi,[rbx+0x1]
00001553  84C0              test al,al
00001555  0F84AD000000      jz qword 0x1608
0000155B  3C25              cmp al,0x25
0000155D  75E1              jnz 0x1540
0000155F  4531C9            xor r9d,r9d
00001562  660F1F440000      nop word [rax+rax+0x0]
00001568  440FB65601        movzx r10d,byte [rsi+0x1]
0000156D  488D4601          lea rax,[rsi+0x1]
00001571  4889C3            mov rbx,rax
00001574  418D52E0          lea edx,[r10-0x20]
00001578  80FA10            cmp dl,0x10
0000157B  0F86A7000000      jna qword 0x1628
00001581  450FBEDA          movsx r11d,r10b
00001585  418D43D0          lea eax,[r11-0x30]
00001589  83F809            cmp eax,byte +0x9
0000158C  0F871E010000      ja qword 0x16b0
00001592  31C9              xor ecx,ecx
00001594  0F1F4000          nop dword [rax+0x0]
00001598  4883C301          add rbx,byte +0x1
0000159C  8D0489            lea eax,[rcx+rcx*4]
0000159F  440FB613          movzx r10d,byte [rbx]
000015A3  418D4C43D0        lea ecx,[r11+rax*2-0x30]
000015A8  450FBEDA          movsx r11d,r10b
000015AC  418D43D0          lea eax,[r11-0x30]
000015B0  83F809            cmp eax,byte +0x9
000015B3  76E3              jna 0x1598
000015B5  4180FA2E          cmp r10b,0x2e
000015B9  0F8439010000      jz qword 0x16f8
000015BF  4489D2            mov edx,r10d
000015C2  41B8FFFFFFFF      mov r8d,0xffffffff
000015C8  83E2FB            and edx,byte -0x5
000015CB  80FA68            cmp dl,0x68
000015CE  0F84AC000000      jz qword 0x1680
000015D4  4180FA4C          cmp r10b,0x4c
000015D8  0F84A2000000      jz qword 0x1680
000015DE  B8FFFFFFFF        mov eax,0xffffffff
000015E3  4183EA25          sub r10d,byte +0x25
000015E7  4180FA53          cmp r10b,0x53
000015EB  0F86AA000000      jna qword 0x169b
000015F1  4883C301          add rbx,byte +0x1
000015F5  0FB64301          movzx eax,byte [rbx+0x1]
000015F9  488D7301          lea rsi,[rbx+0x1]
000015FD  84C0              test al,al
000015FF  0F8556FFFFFF      jnz qword 0x155b
00001605  0F1F00            nop dword [rax]
00001608  4489E8            mov eax,r13d
0000160B  29E8              sub eax,ebp
0000160D  41C6450000        mov byte [r13+0x0],0x0
00001612  4883C428          add rsp,byte +0x28
00001616  5B                pop rbx
00001617  5D                pop rbp
00001618  415C              pop r12
0000161A  415D              pop r13
0000161C  415E              pop r14
0000161E  415F              pop r15
00001620  C3                ret
00001621  0F1F8000000000    nop dword [rax+0x0]
00001628  0FB6D2            movzx edx,dl
0000162B  FF24D5A01F5000    jmp qword [rdx*8+0x501fa0]
00001632  660F1F440000      nop word [rax+rax+0x0]
00001638  4183C901          or r9d,byte +0x1
0000163C  4889C6            mov rsi,rax
0000163F  E924FFFFFF        jmp qword 0x1568
00001644  0F1F4000          nop dword [rax+0x0]
00001648  4183C910          or r9d,byte +0x10
0000164C  EBEE              jmp short 0x163c
0000164E  6690              xchg ax,ax
00001650  4183C904          or r9d,byte +0x4
00001654  EBE6              jmp short 0x163c
00001656  662E0F1F84000000  nop word [cs:rax+rax+0x0]
         -0000
00001660  4183C920          or r9d,byte +0x20
00001664  EBD6              jmp short 0x163c
00001666  662E0F1F84000000  nop word [cs:rax+rax+0x0]
         -0000
00001670  4183C908          or r9d,byte +0x8
00001674  EBC6              jmp short 0x163c
00001676  662E0F1F84000000  nop word [cs:rax+rax+0x0]
         -0000
00001680  410FBEC2          movsx eax,r10b
00001684  440FB65301        movzx r10d,byte [rbx+0x1]
00001689  4883C301          add rbx,byte +0x1
0000168D  4183EA25          sub r10d,byte +0x25
00001691  4180FA53          cmp r10b,0x53
00001695  0F8756FFFFFF      ja qword 0x15f1
0000169B  450FB6D2          movzx r10d,r10b
0000169F  42FF24D528205000  jmp qword [r10*8+0x502028]
000016A7  660F1F8400000000  nop word [rax+rax+0x0]
         -00
000016B0  4180FA2A          cmp r10b,0x2a
000016B4  B9FFFFFFFF        mov ecx,0xffffffff
000016B9  0F85F6FEFFFF      jnz qword 0x15b5
000016BF  418B16            mov edx,[r14]
000016C2  488D5E02          lea rbx,[rsi+0x2]
000016C6  83FA30            cmp edx,byte +0x30
000016C9  0F8371050000      jnc qword 0x1c40
000016CF  89D0              mov eax,edx
000016D1  49034610          add rax,[r14+0x10]
000016D5  83C208            add edx,byte +0x8
000016D8  418916            mov [r14],edx
000016DB  8B08              mov ecx,[rax]
000016DD  85C9              test ecx,ecx
000016DF  0F8871050000      js qword 0x1c56
000016E5  440FB65602        movzx r10d,byte [rsi+0x2]
000016EA  4180FA2E          cmp r10b,0x2e
000016EE  0F85CBFEFFFF      jnz qword 0x15bf
000016F4  0F1F4000          nop dword [rax+0x0]
000016F8  440FB65301        movzx r10d,byte [rbx+0x1]
000016FD  488D4301          lea rax,[rbx+0x1]
00001701  450FBEDA          movsx r11d,r10b
00001705  418D53D0          lea edx,[r11-0x30]
00001709  83FA09            cmp edx,byte +0x9
0000170C  7642              jna 0x1750
0000170E  4180FA2A          cmp r10b,0x2a
00001712  0F84E2050000      jz qword 0x1cfa
00001718  4180FA73          cmp r10b,0x73
0000171C  0F8401060000      jz qword 0x1d23
00001722  4489D2            mov edx,r10d
00001725  83E2FB            and edx,byte -0x5
00001728  80FA68            cmp dl,0x68
0000172B  0F857B050000      jnz qword 0x1cac
00001731  807B0273          cmp byte [rbx+0x2],0x73
00001735  0F84E4050000      jz qword 0x1d1f
0000173B  4889C3            mov rbx,rax
0000173E  4531C0            xor r8d,r8d
00001741  E985FEFFFF        jmp qword 0x15cb
00001746  662E0F1F84000000  nop word [cs:rax+rax+0x0]
         -0000
00001750  4531C0            xor r8d,r8d
00001753  0F1F440000        nop dword [rax+rax+0x0]
00001758  4883C001          add rax,byte +0x1
0000175C  438D1480          lea edx,[r8+r8*4]
00001760  440FB610          movzx r10d,byte [rax]
00001764  458D4453D0        lea r8d,[r11+rdx*2-0x30]
00001769  450FBEDA          movsx r11d,r10b
0000176D  418D53D0          lea edx,[r11-0x30]
00001771  83FA09            cmp edx,byte +0x9
00001774  76E2              jna 0x1758
00001776  4585C0            test r8d,r8d
00001779  0F88BC050000      js qword 0x1d3b
0000177F  4489D2            mov edx,r10d
00001782  4889C3            mov rbx,rax
00001785  83E2FB            and edx,byte -0x5
00001788  E93EFEFFFF        jmp qword 0x15cb
0000178D  BA10000000        mov edx,0x10
00001792  83F86C            cmp eax,byte +0x6c
00001795  418B36            mov esi,[r14]
00001798  743F              jz 0x17d9
0000179A  41F6C102          test r9b,0x2
0000179E  0F844C040000      jz qword 0x1bf0
000017A4  83FE30            cmp esi,byte +0x30
000017A7  0F837B040000      jnc qword 0x1c28
000017AD  89F0              mov eax,esi
000017AF  49034610          add rax,[r14+0x10]
000017B3  83C608            add esi,byte +0x8
000017B6  418936            mov [r14],esi
000017B9  486330            movsxd rsi,dword [rax]
000017BC  4C89EF            mov rdi,r13
000017BF  E8ACF7FFFF        call qword 0xf70
000017C4  4989C5            mov r13,rax
000017C7  E97FFDFFFF        jmp qword 0x154b
000017CC  83F86C            cmp eax,byte +0x6c
000017CF  BA0A000000        mov edx,0xa
000017D4  418B36            mov esi,[r14]
000017D7  75C1              jnz 0x179a
000017D9  83FE30            cmp esi,byte +0x30
000017DC  0F8386040000      jnc qword 0x1c68
000017E2  89F0              mov eax,esi
000017E4  49034610          add rax,[r14+0x10]
000017E8  83C608            add esi,byte +0x8
000017EB  418936            mov [r14],esi
000017EE  488B30            mov rsi,[rax]
000017F1  EBC9              jmp short 0x17bc
000017F3  418B16            mov edx,[r14]
000017F6  83FA30            cmp edx,byte +0x30
000017F9  0F839C040000      jnc qword 0x1c9b
000017FF  89D0              mov eax,edx
00001801  49034610          add rax,[r14+0x10]
00001805  83C208            add edx,byte +0x8
00001808  418916            mov [r14],edx
0000180B  4C8B38            mov r15,[rax]
0000180E  4963F0            movsxd rsi,r8d
00001811  894C2410          mov [rsp+0x10],ecx
00001815  44894C2418        mov [rsp+0x18],r9d
0000181A  4D85FF            test r15,r15
0000181D  4D0F44FC          cmovz r15,r12
00001821  4C89FF            mov rdi,r15
00001824  E8F7050000        call qword 0x1e20
00001829  448B4C2418        mov r9d,[rsp+0x18]
0000182E  4189C0            mov r8d,eax
00001831  8B4C2410          mov ecx,[rsp+0x10]
00001835  4183E110          and r9d,byte +0x10
00001839  7513              jnz 0x184e
0000183B  39C1              cmp ecx,eax
0000183D  8D51FF            lea edx,[rcx-0x1]
00001840  0F8E75050000      jng qword 0x1dbb
00001846  8D48FF            lea ecx,[rax-0x1]
00001849  41C6450020        mov byte [r13+0x0],0x20
0000184E  4585C0            test r8d,r8d
00001851  0F8E9F000000      jng qword 0x18f6
00001857  498D5708          lea rdx,[r15+0x8]
0000185B  498D7508          lea rsi,[r13+0x8]
0000185F  4189C2            mov r10d,eax
00001862  41C1EA03          shr r10d,byte 0x3
00001866  89C7              mov edi,eax
00001868  4939D5            cmp r13,rdx
0000186B  468D0CD500000000  lea r9d,[r10*8+0x0]
00001873  0F93C2            setnc dl
00001876  4939F7            cmp r15,rsi
00001879  400F93C6          setnc sil
0000187D  09F2              or edx,esi
0000187F  83F80A            cmp eax,byte +0xa
00001882  400F97C6          seta sil
00001886  21F2              and edx,esi
00001888  4C89FE            mov rsi,r15
0000188B  4C09EE            or rsi,r13
0000188E  83E607            and esi,byte +0x7
00001891  400F94C6          setz sil
00001895  4084F2            test dl,sil
00001898  0F8427050000      jz qword 0x1dc5
0000189E  4585C9            test r9d,r9d
000018A1  0F841E050000      jz qword 0x1dc5
000018A7  31D2              xor edx,edx
000018A9  0F1F8000000000    nop dword [rax+0x0]
000018B0  498B34D7          mov rsi,[r15+rdx*8]
000018B4  498974D500        mov [r13+rdx*8+0x0],rsi
000018B9  4883C201          add rdx,byte +0x1
000018BD  4139D2            cmp r10d,edx
000018C0  77EE              ja 0x18b0
000018C2  4489CA            mov edx,r9d
000018C5  4901D7            add r15,rdx
000018C8  4439CF            cmp edi,r9d
000018CB  4D8D541500        lea r10,[r13+rdx+0x0]
000018D0  741C              jz 0x18ee
000018D2  31D2              xor edx,edx
000018D4  0F1F4000          nop dword [rax+0x0]
000018D8  410FB63417        movzx esi,byte [r15+rdx]
000018DD  41883412          mov [r10+rdx],sil
000018E1  4883C201          add rdx,byte +0x1
000018E5  418D3411          lea esi,[r9+rdx]
000018E9  4139F0            cmp r8d,esi
000018EC  7FEA              jg 0x18d8
000018EE  83EF01            sub edi,byte +0x1
000018F1  4D8D6C3D01        lea r13,[r13+rdi+0x1]
000018F6  4439C1            cmp ecx,r8d
000018F9  8D71FF            lea esi,[rcx-0x1]
000018FC  0F8E49FCFFFF      jng qword 0x154b
00001902  4D89E9            mov r9,r13
00001905  4189CF            mov r15d,ecx
00001908  4C89EA            mov rdx,r13
0000190B  49F7D9            neg r9
0000190E  4129C7            sub r15d,eax
00001911  4183E107          and r9d,byte +0x7
00001915  4539CF            cmp r15d,r9d
00001918  450F42CF          cmovc r9d,r15d
0000191C  4183FF0A          cmp r15d,byte +0xa
00001920  450F46CF          cmovna r9d,r15d
00001924  4585C9            test r9d,r9d
00001927  7420              jz 0x1949
00001929  0F1F8000000000    nop dword [rax+0x0]
00001930  C60220            mov byte [rdx],0x20
00001933  4883C201          add rdx,byte +0x1
00001937  83EE01            sub esi,byte +0x1
0000193A  89D7              mov edi,edx
0000193C  4429EF            sub edi,r13d
0000193F  4139F9            cmp r9d,edi
00001942  77EC              ja 0x1930
00001944  4539CF            cmp r15d,r9d
00001947  7469              jz 0x19b2
00001949  4529CF            sub r15d,r9d
0000194C  4589CA            mov r10d,r9d
0000194F  4589F9            mov r9d,r15d
00001952  44897C240C        mov [rsp+0xc],r15d
00001957  41C1E903          shr r9d,byte 0x3
0000195B  468D1CCD00000000  lea r11d,[r9*8+0x0]
00001963  4585DB            test r11d,r11d
00001966  7438              jz 0x19a0
00001968  4D01EA            add r10,r13
0000196B  31FF              xor edi,edi
0000196D  0F1F00            nop dword [rax]
00001970  49BF202020202020  mov r15,0x2020202020202020
         -2020
0000197A  4D893CFA          mov [r10+rdi*8],r15
0000197E  4883C701          add rdi,byte +0x1
00001982  4139F9            cmp r9d,edi
00001985  77E9              ja 0x1970
00001987  4489DF            mov edi,r11d
0000198A  4429DE            sub esi,r11d
0000198D  4801FA            add rdx,rdi
00001990  44395C240C        cmp [rsp+0xc],r11d
00001995  741B              jz 0x19b2
00001997  660F1F8400000000  nop word [rax+rax+0x0]
         -00
000019A0  83EE01            sub esi,byte +0x1
000019A3  C60220            mov byte [rdx],0x20
000019A6  4883C201          add rdx,byte +0x1
000019AA  8D7E01            lea edi,[rsi+0x1]
000019AD  4139F8            cmp r8d,edi
000019B0  7CEE              jl 0x19a0
000019B2  F7D0              not eax
000019B4  01C1              add ecx,eax
000019B6  4D8D6C0D01        lea r13,[r13+rcx+0x1]
000019BB  E98BFBFFFF        jmp qword 0x154b
000019C0  83F9FF            cmp ecx,byte -0x1
000019C3  0F84FD020000      jz qword 0x1cc6
000019C9  418B16            mov edx,[r14]
000019CC  83FA30            cmp edx,byte +0x30
000019CF  0F83B5020000      jnc qword 0x1c8a
000019D5  89D0              mov eax,edx
000019D7  49034610          add rax,[r14+0x10]
000019DB  83C208            add edx,byte +0x8
000019DE  418916            mov [r14],edx
000019E1  488B30            mov rsi,[rax]
000019E4  4C89EF            mov rdi,r13
000019E7  BA10000000        mov edx,0x10
000019EC  E87FF5FFFF        call qword 0xf70
000019F1  4989C5            mov r13,rax
000019F4  E952FBFFFF        jmp qword 0x154b
000019F9  BA08000000        mov edx,0x8
000019FE  E98FFDFFFF        jmp qword 0x1792
00001A03  83F86C            cmp eax,byte +0x6c
00001A06  418B16            mov edx,[r14]
00001A09  0F84C5020000      jz qword 0x1cd4
00001A0F  83F868            cmp eax,byte +0x68
00001A12  0F8453030000      jz qword 0x1d6b
00001A18  83FA30            cmp edx,byte +0x30
00001A1B  0F832B030000      jnc qword 0x1d4c
00001A21  89D0              mov eax,edx
00001A23  49034610          add rax,[r14+0x10]
00001A27  83C208            add edx,byte +0x8
00001A2A  418916            mov [r14],edx
00001A2D  488B00            mov rax,[rax]
00001A30  4C89EA            mov rdx,r13
00001A33  4829EA            sub rdx,rbp
00001A36  8910              mov [rax],edx
00001A38  E90EFBFFFF        jmp qword 0x154b
00001A3D  4183C902          or r9d,byte +0x2
00001A41  BA0A000000        mov edx,0xa
00001A46  E947FDFFFF        jmp qword 0x1792
00001A4B  4183E110          and r9d,byte +0x10
00001A4F  0F85B0000000      jnz qword 0x1b05
00001A55  8D51FF            lea edx,[rcx-0x1]
00001A58  85D2              test edx,edx
00001A5A  0F8E54030000      jng qword 0x1db4
00001A60  4C89EF            mov rdi,r13
00001A63  4189D2            mov r10d,edx
00001A66  4C89E8            mov rax,r13
00001A69  48F7DF            neg rdi
00001A6C  83E707            and edi,byte +0x7
00001A6F  39FA              cmp edx,edi
00001A71  0F46FA            cmovna edi,edx
00001A74  83FA0A            cmp edx,byte +0xa
00001A77  0F46FA            cmovna edi,edx
00001A7A  85FF              test edi,edi
00001A7C  741A              jz 0x1a98
00001A7E  6690              xchg ax,ax
00001A80  C60020            mov byte [rax],0x20
00001A83  4883C001          add rax,byte +0x1
00001A87  83EA01            sub edx,byte +0x1
00001A8A  89C6              mov esi,eax
00001A8C  4429EE            sub esi,r13d
00001A8F  39F7              cmp edi,esi
00001A91  77ED              ja 0x1a80
00001A93  4139FA            cmp r10d,edi
00001A96  745E              jz 0x1af6
00001A98  4129FA            sub r10d,edi
00001A9B  4189F8            mov r8d,edi
00001A9E  4489D7            mov edi,r10d
00001AA1  C1EF03            shr edi,byte 0x3
00001AA4  448D0CFD00000000  lea r9d,[rdi*8+0x0]
00001AAC  4585C9            test r9d,r9d
00001AAF  7437              jz 0x1ae8
00001AB1  4D01E8            add r8,r13
00001AB4  31F6              xor esi,esi
00001AB6  662E0F1F84000000  nop word [cs:rax+rax+0x0]
         -0000
00001AC0  49BB202020202020  mov r11,0x2020202020202020
         -2020
00001ACA  4D891CF0          mov [r8+rsi*8],r11
00001ACE  4883C601          add rsi,byte +0x1
00001AD2  39F7              cmp edi,esi
00001AD4  77EA              ja 0x1ac0
00001AD6  4489CE            mov esi,r9d
00001AD9  4429CA            sub edx,r9d
00001ADC  4801F0            add rax,rsi
00001ADF  4539CA            cmp r10d,r9d
00001AE2  7412              jz 0x1af6
00001AE4  0F1F4000          nop dword [rax+0x0]
00001AE8  83EA01            sub edx,byte +0x1
00001AEB  C60020            mov byte [rax],0x20
00001AEE  4883C001          add rax,byte +0x1
00001AF2  85D2              test edx,edx
00001AF4  7FF2              jg 0x1ae8
00001AF6  8D41FE            lea eax,[rcx-0x2]
00001AF9  89C2              mov edx,eax
00001AFB  29C8              sub eax,ecx
00001AFD  4D8D6C1501        lea r13,[r13+rdx+0x1]
00001B02  8D4802            lea ecx,[rax+0x2]
00001B05  418B16            mov edx,[r14]
00001B08  83FA30            cmp edx,byte +0x30
00001B0B  0F8368010000      jnc qword 0x1c79
00001B11  89D0              mov eax,edx
00001B13  49034610          add rax,[r14+0x10]
00001B17  83C208            add edx,byte +0x8
00001B1A  418916            mov [r14],edx
00001B1D  8B00              mov eax,[rax]
00001B1F  8D51FF            lea edx,[rcx-0x1]
00001B22  4D8D5501          lea r10,[r13+0x1]
00001B26  85D2              test edx,edx
00001B28  41884500          mov [r13+0x0],al
00001B2C  0F8E7A020000      jng qword 0x1dac
00001B32  4C89D7            mov rdi,r10
00001B35  4189D3            mov r11d,edx
00001B38  4C89D0            mov rax,r10
00001B3B  48F7DF            neg rdi
00001B3E  83E707            and edi,byte +0x7
00001B41  39FA              cmp edx,edi
00001B43  0F42FA            cmovc edi,edx
00001B46  83FA0A            cmp edx,byte +0xa
00001B49  0F46FA            cmovna edi,edx
00001B4C  85FF              test edi,edi
00001B4E  741E              jz 0x1b6e
00001B50  31F6              xor esi,esi
00001B52  660F1F440000      nop word [rax+rax+0x0]
00001B58  83C601            add esi,byte +0x1
00001B5B  C60020            mov byte [rax],0x20
00001B5E  83EA01            sub edx,byte +0x1
00001B61  4883C001          add rax,byte +0x1
00001B65  39F7              cmp edi,esi
00001B67  77EF              ja 0x1b58
00001B69  4139FB            cmp r11d,edi
00001B6C  7458              jz 0x1bc6
00001B6E  4129FB            sub r11d,edi
00001B71  89FE              mov esi,edi
00001B73  4489DF            mov edi,r11d
00001B76  C1EF03            shr edi,byte 0x3
00001B79  448D0CFD00000000  lea r9d,[rdi*8+0x0]
00001B81  4585C9            test r9d,r9d
00001B84  7432              jz 0x1bb8
00001B86  4D8D443501        lea r8,[r13+rsi+0x1]
00001B8B  31F6              xor esi,esi
00001B8D  0F1F00            nop dword [rax]
00001B90  49BD202020202020  mov r13,0x2020202020202020
         -2020
00001B9A  4D892CF0          mov [r8+rsi*8],r13
00001B9E  4883C601          add rsi,byte +0x1
00001BA2  39F7              cmp edi,esi
00001BA4  77EA              ja 0x1b90
00001BA6  4489CE            mov esi,r9d
00001BA9  4429CA            sub edx,r9d
00001BAC  4801F0            add rax,rsi
00001BAF  4539CB            cmp r11d,r9d
00001BB2  7412              jz 0x1bc6
00001BB4  0F1F4000          nop dword [rax+0x0]
00001BB8  83EA01            sub edx,byte +0x1
00001BBB  C60020            mov byte [rax],0x20
00001BBE  4883C001          add rax,byte +0x1
00001BC2  85D2              test edx,edx
00001BC4  7FF2              jg 0x1bb8
00001BC6  83E902            sub ecx,byte +0x2
00001BC9  4D8D6C0A01        lea r13,[r10+rcx+0x1]
00001BCE  E978F9FFFF        jmp qword 0x154b
00001BD3  4183C940          or r9d,byte +0x40
00001BD7  BA10000000        mov edx,0x10
00001BDC  E9B1FBFFFF        jmp qword 0x1792
00001BE1  41C6450025        mov byte [r13+0x0],0x25
00001BE6  4983C501          add r13,byte +0x1
00001BEA  E95CF9FFFF        jmp qword 0x154b
00001BEF  90                nop
00001BF0  83FE30            cmp esi,byte +0x30
00001BF3  731B              jnc 0x1c10
00001BF5  89F0              mov eax,esi
00001BF7  49034610          add rax,[r14+0x10]
00001BFB  83C608            add esi,byte +0x8
00001BFE  418936            mov [r14],esi
00001C01  8B30              mov esi,[rax]
00001C03  E9B4FBFFFF        jmp qword 0x17bc
00001C08  0F1F840000000000  nop dword [rax+rax+0x0]
00001C10  498B4608          mov rax,[r14+0x8]
00001C14  488D7008          lea rsi,[rax+0x8]
00001C18  49897608          mov [r14+0x8],rsi
00001C1C  8B30              mov esi,[rax]
00001C1E  E999FBFFFF        jmp qword 0x17bc
00001C23  0F1F440000        nop dword [rax+rax+0x0]
00001C28  498B4608          mov rax,[r14+0x8]
00001C2C  488D7008          lea rsi,[rax+0x8]
00001C30  49897608          mov [r14+0x8],rsi
00001C34  E980FBFFFF        jmp qword 0x17b9
00001C39  0F1F8000000000    nop dword [rax+0x0]
00001C40  498B4608          mov rax,[r14+0x8]
00001C44  488D5008          lea rdx,[rax+0x8]
00001C48  49895608          mov [r14+0x8],rdx
00001C4C  8B08              mov ecx,[rax]
00001C4E  85C9              test ecx,ecx
00001C50  0F898FFAFFFF      jns qword 0x16e5
00001C56  F7D9              neg ecx
00001C58  4183C910          or r9d,byte +0x10
00001C5C  E984FAFFFF        jmp qword 0x16e5
00001C61  0F1F8000000000    nop dword [rax+0x0]
00001C68  498B4608          mov rax,[r14+0x8]
00001C6C  488D7008          lea rsi,[rax+0x8]
00001C70  49897608          mov [r14+0x8],rsi
00001C74  E975FBFFFF        jmp qword 0x17ee
00001C79  498B4608          mov rax,[r14+0x8]
00001C7D  488D5008          lea rdx,[rax+0x8]
00001C81  49895608          mov [r14+0x8],rdx
00001C85  E993FEFFFF        jmp qword 0x1b1d
00001C8A  498B4608          mov rax,[r14+0x8]
00001C8E  488D5008          lea rdx,[rax+0x8]
00001C92  49895608          mov [r14+0x8],rdx
00001C96  E946FDFFFF        jmp qword 0x19e1
00001C9B  498B4608          mov rax,[r14+0x8]
00001C9F  488D5008          lea rdx,[rax+0x8]
00001CA3  49895608          mov [r14+0x8],rdx
00001CA7  E95FFBFFFF        jmp qword 0x180b
00001CAC  4180FA4C          cmp r10b,0x4c
00001CB0  0F847BFAFFFF      jz qword 0x1731
00001CB6  4889C3            mov rbx,rax
00001CB9  4531C0            xor r8d,r8d
00001CBC  B8FFFFFFFF        mov eax,0xffffffff
00001CC1  E91DF9FFFF        jmp qword 0x15e3
00001CC6  4183C901          or r9d,byte +0x1
00001CCA  B910000000        mov ecx,0x10
00001CCF  E9F5FCFFFF        jmp qword 0x19c9
00001CD4  83FA30            cmp edx,byte +0x30
00001CD7  0F83B0000000      jnc qword 0x1d8d
00001CDD  89D0              mov eax,edx
00001CDF  49034610          add rax,[r14+0x10]
00001CE3  83C208            add edx,byte +0x8
00001CE6  418916            mov [r14],edx
00001CE9  488B00            mov rax,[rax]
00001CEC  4C89EA            mov rdx,r13
00001CEF  4829EA            sub rdx,rbp
00001CF2  488910            mov [rax],rdx
00001CF5  E951F8FFFF        jmp qword 0x154b
00001CFA  418B36            mov esi,[r14]
00001CFD  488D4302          lea rax,[rbx+0x2]
00001D01  83FE30            cmp esi,byte +0x30
00001D04  7357              jnc 0x1d5d
00001D06  89F2              mov edx,esi
00001D08  49035610          add rdx,[r14+0x10]
00001D0C  83C608            add esi,byte +0x8
00001D0F  418936            mov [r14],esi
00001D12  448B02            mov r8d,[rdx]
00001D15  440FB65302        movzx r10d,byte [rbx+0x2]
00001D1A  E957FAFFFF        jmp qword 0x1776
00001D1F  488D4302          lea rax,[rbx+0x2]
00001D23  41BA73000000      mov r10d,0x73
00001D29  4531C0            xor r8d,r8d
00001D2C  E94EFAFFFF        jmp qword 0x177f
00001D31  4989FD            mov r13,rdi
00001D34  31C0              xor eax,eax
00001D36  E9D2F8FFFF        jmp qword 0x160d
00001D3B  4489D2            mov edx,r10d
00001D3E  4889C3            mov rbx,rax
00001D41  4531C0            xor r8d,r8d
00001D44  83E2FB            and edx,byte -0x5
00001D47  E97FF8FFFF        jmp qword 0x15cb
00001D4C  498B4608          mov rax,[r14+0x8]
00001D50  488D5008          lea rdx,[rax+0x8]
00001D54  49895608          mov [r14+0x8],rdx
00001D58  E9D0FCFFFF        jmp qword 0x1a2d
00001D5D  498B5608          mov rdx,[r14+0x8]
00001D61  488D7208          lea rsi,[rdx+0x8]
00001D65  49897608          mov [r14+0x8],rsi
00001D69  EBA7              jmp short 0x1d12
00001D6B  83FA30            cmp edx,byte +0x30
00001D6E  732E              jnc 0x1d9e
00001D70  89D0              mov eax,edx
00001D72  49034610          add rax,[r14+0x10]
00001D76  83C208            add edx,byte +0x8
00001D79  418916            mov [r14],edx
00001D7C  488B00            mov rax,[rax]
00001D7F  4C89EA            mov rdx,r13
00001D82  4829EA            sub rdx,rbp
00001D85  668910            mov [rax],dx
00001D88  E9BEF7FFFF        jmp qword 0x154b
00001D8D  498B4608          mov rax,[r14+0x8]
00001D91  488D5008          lea rdx,[rax+0x8]
00001D95  49895608          mov [r14+0x8],rdx
00001D99  E94BFFFFFF        jmp qword 0x1ce9
00001D9E  498B4608          mov rax,[r14+0x8]
00001DA2  488D5008          lea rdx,[rax+0x8]
00001DA6  49895608          mov [r14+0x8],rdx
00001DAA  EBD0              jmp short 0x1d7c
00001DAC  4D89D5            mov r13,r10
00001DAF  E997F7FFFF        jmp qword 0x154b
00001DB4  89D1              mov ecx,edx
00001DB6  E94AFDFFFF        jmp qword 0x1b05
00001DBB  89D1              mov ecx,edx
00001DBD  0F1F00            nop dword [rax]
00001DC0  E989FAFFFF        jmp qword 0x184e
00001DC5  4D89EA            mov r10,r13
00001DC8  4531C9            xor r9d,r9d
00001DCB  E902FBFFFF        jmp qword 0x18d2
00001DD0  4883EC58          sub rsp,byte +0x58
00001DD4  488D442460        lea rax,[rsp+0x60]
00001DD9  4889542430        mov [rsp+0x30],rdx
00001DDE  488D542408        lea rdx,[rsp+0x8]
00001DE3  48894C2438        mov [rsp+0x38],rcx
00001DE8  4C89442440        mov [rsp+0x40],r8
00001DED  4889442410        mov [rsp+0x10],rax
00001DF2  488D442420        lea rax,[rsp+0x20]
00001DF7  4C894C2448        mov [rsp+0x48],r9
00001DFC  C744240810000000  mov dword [rsp+0x8],0x10
00001E04  4889442418        mov [rsp+0x18],rax
00001E09  E802F7FFFF        call qword 0x1510
00001E0E  4883C458          add rsp,byte +0x58
00001E12  C3                ret
00001E13  90                nop
00001E14  90                nop
00001E15  90                nop
00001E16  90                nop
00001E17  90                nop
00001E18  90                nop
00001E19  90                nop
00001E1A  90                nop
00001E1B  90                nop
00001E1C  90                nop
00001E1D  90                nop
00001E1E  90                nop
00001E1F  90                nop
00001E20  31C0              xor eax,eax
00001E22  803F00            cmp byte [rdi],0x0
00001E25  7423              jz 0x1e4a
00001E27  4885F6            test rsi,rsi
00001E2A  7509              jnz 0x1e35
00001E2C  EB11              jmp short 0x1e3f
00001E2E  6690              xchg ax,ax
00001E30  4839C6            cmp rsi,rax
00001E33  7413              jz 0x1e48
00001E35  4883C001          add rax,byte +0x1
00001E39  803C0700          cmp byte [rdi+rax],0x0
00001E3D  75F1              jnz 0x1e30
00001E3F  F3C3              rep ret
00001E41  0F1F8000000000    nop dword [rax+0x0]
00001E48  F3C3              rep ret
00001E4A  660F1F440000      nop word [rax+rax+0x0]
00001E50  F3C3              rep ret
00001E52  0000              add [rax],al
00001E54  0000              add [rax],al
00001E56  0000              add [rax],al
00001E58  4D                rex.wrb
00001E59  45                rex.rb
00001E5A  4D                rex.wrb
00001E5B  4F52              push r10
00001E5D  59                pop rcx
00001E5E  45                rex.rb
00001E5F  4E54              push rsp
00001E61  52                push rdx
00001E62  59                pop rcx
00001E63  5F                pop rdi
00001E64  55                push rbp
00001E65  53                push rbx
00001E66  41                rex.b
00001E67  42                rex.x
00001E68  4C                rex.wr
00001E69  450000            add [r8],r8b
00001E6C  4D                rex.wrb
00001E6D  45                rex.rb
00001E6E  4D                rex.wrb
00001E6F  4F52              push r10
00001E71  59                pop rcx
00001E72  45                rex.rb
00001E73  4E54              push rsp
00001E75  52                push rdx
00001E76  59                pop rcx
00001E77  5F                pop rdi
00001E78  52                push rdx
00001E79  4553              push r11
00001E7B  4552              push r10
00001E7D  56                push rsi
00001E7E  45                rex.rb
00001E7F  440000            add [rax],r8b
00001E82  4D                rex.wrb
00001E83  45                rex.rb
00001E84  4D                rex.wrb
00001E85  4F52              push r10
00001E87  59                pop rcx
00001E88  45                rex.rb
00001E89  4E54              push rsp
00001E8B  52                push rdx
00001E8C  59                pop rcx
00001E8D  5F                pop rdi
00001E8E  41                rex.b
00001E8F  4350              push r8
00001E91  495F              pop r15
00001E93  52                push rdx
00001E94  45                rex.rb
00001E95  430000            add [r8],al
00001E98  4D                rex.wrb
00001E99  45                rex.rb
00001E9A  4D                rex.wrb
00001E9B  4F52              push r10
00001E9D  59                pop rcx
00001E9E  45                rex.rb
00001E9F  4E54              push rsp
00001EA1  52                push rdx
00001EA2  59                pop rcx
00001EA3  5F                pop rdi
00001EA4  41                rex.b
00001EA5  4350              push r8
00001EA7  495F              pop r15
00001EA9  4E56              push rsi
00001EAB  53                push rbx
00001EAC  0000              add [rax],al
00001EAE  4D                rex.wrb
00001EAF  45                rex.rb
00001EB0  4D                rex.wrb
00001EB1  4F52              push r10
00001EB3  59                pop rcx
00001EB4  45                rex.rb
00001EB5  4E54              push rsp
00001EB7  52                push rdx
00001EB8  59                pop rcx
00001EB9  5F                pop rdi
00001EBA  42                rex.x
00001EBB  41                rex.b
00001EBC  44                rex.r
00001EBD  4D                rex.wrb
00001EBE  45                rex.rb
00001EBF  4D0000            o64 add [r8],r8b
00001EC2  496E              o64 outsb
00001EC4  7420              jz 0x1ee6
00001EC6  56                push rsi
00001EC7  65                gs
00001EC8  63                db 0x63
00001EC9  746F              jz 0x1f3a
00001ECB  7220              jc 0x1eed
00001ECD  5B                pop rbx
00001ECE  307825            xor [rax+0x25],bh
00001ED1  3032              xor [rdx],dh
00001ED3  785D              js 0x1f32
00001ED5  00496E            add [rcx+0x6e],cl
00001ED8  7420              jz 0x1efa
00001EDA  56                push rsi
00001EDB  65                gs
00001EDC  63                db 0x63
00001EDD  746F              jz 0x1f4e
00001EDF  7220              jc 0x1f01
00001EE1  5B                pop rbx
00001EE2  3F                db 0x3f
00001EE3  3F                db 0x3f
00001EE4  3F                db 0x3f
00001EE5  3F                db 0x3f
00001EE6  5D                pop rbp
00001EE7  00546573          add [rbp+0x73],dl
00001EEB  7420              jz 0x1f0d
00001EED  496E              o64 outsb
00001EEF  7465              jz 0x1f56
00001EF1  7272              jc 0x1f65
00001EF3  7570              jnz 0x1f65
00001EF5  7420              jz 0x1f17
00001EF7  53                push rbx
00001EF8  7461              jz 0x1f5b
00001EFA  7274              jc 0x1f70
00001EFC  00546573          add [rbp+0x73],dl
00001F00  7420              jz 0x1f22
00001F02  496E              o64 outsb
00001F04  7465              jz 0x1f6b
00001F06  7272              jc 0x1f7a
00001F08  7570              jnz 0x1f7a
00001F0A  7420              jz 0x1f2c
00001F0C  456E              outsb
00001F0E  6400436C          add [fs:rbx+0x6c],al
00001F12  7562              jnz 0x1f76
00001F14  63                db 0x63
00001F15  6F                outsd
00001F16  7331              jnc 0x1f49
00001F18  203E              and [rsi],bh
00001F1A  2000              and [rax],al
00001F1C  0000              add [rax],al
00001F1E  0000              add [rax],al
00001F20  5B                pop rbx
00001F21  307825            xor [rax+0x25],bh
00001F24  3031              xor [rcx],dh
00001F26  366C              ss insb
00001F28  787C              js 0x1fa6
00001F2A  307825            xor [rax+0x25],bh
00001F2D  3031              xor [rcx],dh
00001F2F  366C              ss insb
00001F31  7829              js 0x1f5c
00001F33  202573282575      and [rel 0x752547ac],ah
00001F39  2920              sub [rax],esp
00001F3B  657874            gs js 0x1fb2
00001F3E  61                db 0x61
00001F3F  7474              jz 0x1fb5
00001F41  723A              jc 0x1f7d
00001F43  2575000000        and eax,0x75
00001F48  3031              xor [rcx],dh
00001F4A  3233              xor dh,[rbx]
00001F4C  3435              xor al,0x35
00001F4E  36                ss
00001F4F  37                db 0x37
00001F50  3839              cmp [rcx],bh
00001F52  61                db 0x61
00001F53  62                db 0x62
00001F54  63                db 0x63
00001F55  6465666768696A    gs push word 0x6a69
00001F5C  6B6C6D6E6F        imul ebp,[rbp+rbp*2+0x6e],byte +0x6f
00001F61  7071              jo 0x1fd4
00001F63  7273              jc 0x1fd8
00001F65  7475              jz 0x1fdc
00001F67  7677              jna 0x1fe0
00001F69  7879              js 0x1fe4
00001F6B  7A00              jpe 0x1f6d
00001F6D  0000              add [rax],al
00001F6F  0030              add [rax],dh
00001F71  3132              xor [rdx],esi
00001F73  33343536373839    xor esi,[rsi+0x39383736]
00001F7A  41                rex.b
00001F7B  42                rex.x
00001F7C  43                rex.xb
00001F7D  44                rex.r
00001F7E  45                rex.rb
00001F7F  46                rex.rx
00001F80  47                rex.rxb
00001F81  48                rex.w
00001F82  49                rex.wb
00001F83  4A                rex.wx
00001F84  4B                rex.wxb
00001F85  4C                rex.wr
00001F86  4D                rex.wrb
00001F87  4E                rex.wrx
00001F88  4F50              push r8
00001F8A  51                push rcx
00001F8B  52                push rdx
00001F8C  53                push rbx
00001F8D  54                push rsp
00001F8E  55                push rbp
00001F8F  56                push rsi
00001F90  57                push rdi
00001F91  58                pop rax
00001F92  59                pop rcx
00001F93  5A                pop rdx
00001F94  0000              add [rax],al
00001F96  0000              add [rax],al
00001F98  3C4E              cmp al,0x4e
00001F9A  55                push rbp
00001F9B  4C                rex.wr
00001F9C  4C                rex.wr
00001F9D  3E0000            add [ds:rax],al
00001FA0  7016              jo 0x1fb8
00001FA2  50                push rax
00001FA3  0000              add [rax],al
00001FA5  0000              add [rax],al
00001FA7  008115500000      add [rcx+0x5015],al
00001FAD  0000              add [rax],al
00001FAF  008115500000      add [rcx+0x5015],al
00001FB5  0000              add [rax],al
00001FB7  006016            add [rax+0x16],ah
00001FBA  50                push rax
00001FBB  0000              add [rax],al
00001FBD  0000              add [rax],al
00001FBF  008115500000      add [rcx+0x5015],al
00001FC5  0000              add [rax],al
00001FC7  008115500000      add [rcx+0x5015],al
00001FCD  0000              add [rax],al
00001FCF  008115500000      add [rcx+0x5015],al
00001FD5  0000              add [rax],al
00001FD7  008115500000      add [rcx+0x5015],al
00001FDD  0000              add [rax],al
00001FDF  008115500000      add [rcx+0x5015],al
00001FE5  0000              add [rax],al
00001FE7  008115500000      add [rcx+0x5015],al
00001FED  0000              add [rax],al
00001FEF  008115500000      add [rcx+0x5015],al
00001FF5  0000              add [rax],al
00001FF7  005016            add [rax+0x16],dl
00001FFA  50                push rax
00001FFB  0000              add [rax],al
00001FFD  0000              add [rax],al
00001FFF  008115500000      add [rcx+0x5015],al
00002005  0000              add [rax],al
00002007  004816            add [rax+0x16],cl
0000200A  50                push rax
0000200B  0000              add [rax],al
0000200D  0000              add [rax],al
0000200F  008115500000      add [rcx+0x5015],al
00002015  0000              add [rax],al
00002017  008115500000      add [rcx+0x5015],al
0000201D  0000              add [rax],al
0000201F  0038              add [rax],bh
00002021  16                db 0x16
00002022  50                push rax
00002023  0000              add [rax],al
00002025  0000              add [rax],al
00002027  00E1              add cl,ah
00002029  1B5000            sbb edx,[rax+0x0]
0000202C  0000              add [rax],al
0000202E  0000              add [rax],al
00002030  F1                int1
00002031  1550000000        adc eax,0x50
00002036  0000              add [rax],al
00002038  F1                int1
00002039  1550000000        adc eax,0x50
0000203E  0000              add [rax],al
00002040  F1                int1
00002041  1550000000        adc eax,0x50
00002046  0000              add [rax],al
00002048  F1                int1
00002049  1550000000        adc eax,0x50
0000204E  0000              add [rax],al
00002050  F1                int1
00002051  1550000000        adc eax,0x50
00002056  0000              add [rax],al
00002058  F1                int1
00002059  1550000000        adc eax,0x50
0000205E  0000              add [rax],al
00002060  F1                int1
00002061  1550000000        adc eax,0x50
00002066  0000              add [rax],al
00002068  F1                int1
00002069  1550000000        adc eax,0x50
0000206E  0000              add [rax],al
00002070  F1                int1
00002071  1550000000        adc eax,0x50
00002076  0000              add [rax],al
00002078  F1                int1
00002079  1550000000        adc eax,0x50
0000207E  0000              add [rax],al
00002080  F1                int1
00002081  1550000000        adc eax,0x50
00002086  0000              add [rax],al
00002088  F1                int1
00002089  1550000000        adc eax,0x50
0000208E  0000              add [rax],al
00002090  F1                int1
00002091  1550000000        adc eax,0x50
00002096  0000              add [rax],al
00002098  F1                int1
00002099  1550000000        adc eax,0x50
0000209E  0000              add [rax],al
000020A0  F1                int1
000020A1  1550000000        adc eax,0x50
000020A6  0000              add [rax],al
000020A8  F1                int1
000020A9  1550000000        adc eax,0x50
000020AE  0000              add [rax],al
000020B0  F1                int1
000020B1  1550000000        adc eax,0x50
000020B6  0000              add [rax],al
000020B8  F1                int1
000020B9  1550000000        adc eax,0x50
000020BE  0000              add [rax],al
000020C0  F1                int1
000020C1  1550000000        adc eax,0x50
000020C6  0000              add [rax],al
000020C8  F1                int1
000020C9  1550000000        adc eax,0x50
000020CE  0000              add [rax],al
000020D0  F1                int1
000020D1  1550000000        adc eax,0x50
000020D6  0000              add [rax],al
000020D8  F1                int1
000020D9  1550000000        adc eax,0x50
000020DE  0000              add [rax],al
000020E0  F1                int1
000020E1  1550000000        adc eax,0x50
000020E6  0000              add [rax],al
000020E8  F1                int1
000020E9  1550000000        adc eax,0x50
000020EE  0000              add [rax],al
000020F0  F1                int1
000020F1  1550000000        adc eax,0x50
000020F6  0000              add [rax],al
000020F8  F1                int1
000020F9  1550000000        adc eax,0x50
000020FE  0000              add [rax],al
00002100  F1                int1
00002101  1550000000        adc eax,0x50
00002106  0000              add [rax],al
00002108  F1                int1
00002109  1550000000        adc eax,0x50
0000210E  0000              add [rax],al
00002110  F1                int1
00002111  1550000000        adc eax,0x50
00002116  0000              add [rax],al
00002118  F1                int1
00002119  1550000000        adc eax,0x50
0000211E  0000              add [rax],al
00002120  F1                int1
00002121  1550000000        adc eax,0x50
00002126  0000              add [rax],al
00002128  F1                int1
00002129  1550000000        adc eax,0x50
0000212E  0000              add [rax],al
00002130  F1                int1
00002131  1550000000        adc eax,0x50
00002136  0000              add [rax],al
00002138  F1                int1
00002139  1550000000        adc eax,0x50
0000213E  0000              add [rax],al
00002140  F1                int1
00002141  1550000000        adc eax,0x50
00002146  0000              add [rax],al
00002148  F1                int1
00002149  1550000000        adc eax,0x50
0000214E  0000              add [rax],al
00002150  F1                int1
00002151  1550000000        adc eax,0x50
00002156  0000              add [rax],al
00002158  F1                int1
00002159  1550000000        adc eax,0x50
0000215E  0000              add [rax],al
00002160  F1                int1
00002161  1550000000        adc eax,0x50
00002166  0000              add [rax],al
00002168  F1                int1
00002169  1550000000        adc eax,0x50
0000216E  0000              add [rax],al
00002170  F1                int1
00002171  1550000000        adc eax,0x50
00002176  0000              add [rax],al
00002178  F1                int1
00002179  1550000000        adc eax,0x50
0000217E  0000              add [rax],al
00002180  F1                int1
00002181  1550000000        adc eax,0x50
00002186  0000              add [rax],al
00002188  F1                int1
00002189  1550000000        adc eax,0x50
0000218E  0000              add [rax],al
00002190  F1                int1
00002191  1550000000        adc eax,0x50
00002196  0000              add [rax],al
00002198  F1                int1
00002199  1550000000        adc eax,0x50
0000219E  0000              add [rax],al
000021A0  F1                int1
000021A1  1550000000        adc eax,0x50
000021A6  0000              add [rax],al
000021A8  F1                int1
000021A9  1550000000        adc eax,0x50
000021AE  0000              add [rax],al
000021B0  F1                int1
000021B1  1550000000        adc eax,0x50
000021B6  0000              add [rax],al
000021B8  F1                int1
000021B9  1550000000        adc eax,0x50
000021BE  0000              add [rax],al
000021C0  D31B              rcr dword [rbx],cl
000021C2  50                push rax
000021C3  0000              add [rax],al
000021C5  0000              add [rax],al
000021C7  00F1              add cl,dh
000021C9  1550000000        adc eax,0x50
000021CE  0000              add [rax],al
000021D0  F1                int1
000021D1  1550000000        adc eax,0x50
000021D6  0000              add [rax],al
000021D8  F1                int1
000021D9  1550000000        adc eax,0x50
000021DE  0000              add [rax],al
000021E0  F1                int1
000021E1  1550000000        adc eax,0x50
000021E6  0000              add [rax],al
000021E8  F1                int1
000021E9  1550000000        adc eax,0x50
000021EE  0000              add [rax],al
000021F0  F1                int1
000021F1  1550000000        adc eax,0x50
000021F6  0000              add [rax],al
000021F8  F1                int1
000021F9  1550000000        adc eax,0x50
000021FE  0000              add [rax],al
00002200  F1                int1
00002201  1550000000        adc eax,0x50
00002206  0000              add [rax],al
00002208  F1                int1
00002209  1550000000        adc eax,0x50
0000220E  0000              add [rax],al
00002210  F1                int1
00002211  1550000000        adc eax,0x50
00002216  0000              add [rax],al
00002218  4B1A5000          o64 sbb dl,[r8+0x0]
0000221C  0000              add [rax],al
0000221E  0000              add [rax],al
00002220  3D1A500000        cmp eax,0x501a
00002225  0000              add [rax],al
00002227  00F1              add cl,dh
00002229  1550000000        adc eax,0x50
0000222E  0000              add [rax],al
00002230  F1                int1
00002231  1550000000        adc eax,0x50
00002236  0000              add [rax],al
00002238  F1                int1
00002239  1550000000        adc eax,0x50
0000223E  0000              add [rax],al
00002240  F1                int1
00002241  1550000000        adc eax,0x50
00002246  0000              add [rax],al
00002248  3D1A500000        cmp eax,0x501a
0000224D  0000              add [rax],al
0000224F  00F1              add cl,dh
00002251  1550000000        adc eax,0x50
00002256  0000              add [rax],al
00002258  F1                int1
00002259  1550000000        adc eax,0x50
0000225E  0000              add [rax],al
00002260  F1                int1
00002261  1550000000        adc eax,0x50
00002266  0000              add [rax],al
00002268  F1                int1
00002269  1550000000        adc eax,0x50
0000226E  0000              add [rax],al
00002270  031A              add ebx,[rdx]
00002272  50                push rax
00002273  0000              add [rax],al
00002275  0000              add [rax],al
00002277  00F9              add cl,bh
00002279  195000            sbb [rax+0x0],edx
0000227C  0000              add [rax],al
0000227E  0000              add [rax],al
00002280  C01950            rcr byte [rcx],byte 0x50
00002283  0000              add [rax],al
00002285  0000              add [rax],al
00002287  00F1              add cl,dh
00002289  1550000000        adc eax,0x50
0000228E  0000              add [rax],al
00002290  F1                int1
00002291  1550000000        adc eax,0x50
00002296  0000              add [rax],al
00002298  F3                rep
00002299  17                db 0x17
0000229A  50                push rax
0000229B  0000              add [rax],al
0000229D  0000              add [rax],al
0000229F  00F1              add cl,dh
000022A1  1550000000        adc eax,0x50
000022A6  0000              add [rax],al
000022A8  CC                int3
000022A9  17                db 0x17
000022AA  50                push rax
000022AB  0000              add [rax],al
000022AD  0000              add [rax],al
000022AF  00F1              add cl,dh
000022B1  1550000000        adc eax,0x50
000022B6  0000              add [rax],al
000022B8  F1                int1
000022B9  1550000000        adc eax,0x50
000022BE  0000              add [rax],al
000022C0  8D17              lea edx,[rdi]
000022C2  50                push rax
000022C3  0000              add [rax],al
000022C5  0000              add [rax],al
000022C7  0000              add [rax],al
000022C9  0000              add [rax],al
000022CB  0000              add [rax],al
000022CD  0000              add [rax],al
000022CF  0000              add [rax],al
000022D1  0000              add [rax],al
000022D3  0000              add [rax],al
000022D5  0000              add [rax],al
000022D7  0000              add [rax],al
000022D9  0000              add [rax],al
000022DB  0000              add [rax],al
000022DD  0000              add [rax],al
000022DF  0000              add [rax],al
000022E1  0000              add [rax],al
000022E3  0000              add [rax],al
000022E5  0000              add [rax],al
000022E7  0000              add [rax],al
000022E9  0000              add [rax],al
000022EB  0000              add [rax],al
000022ED  0000              add [rax],al
000022EF  0000              add [rax],al
000022F1  0000              add [rax],al
000022F3  0000              add [rax],al
000022F5  0000              add [rax],al
000022F7  0000              add [rax],al
000022F9  0000              add [rax],al
000022FB  0000              add [rax],al
000022FD  0000              add [rax],al
000022FF  0000              add [rax],al
00002301  0000              add [rax],al
00002303  0000              add [rax],al
00002305  0000              add [rax],al
00002307  0000              add [rax],al
00002309  0000              add [rax],al
0000230B  0000              add [rax],al
0000230D  0000              add [rax],al
0000230F  0000              add [rax],al
00002311  0000              add [rax],al
00002313  0000              add [rax],al
00002315  0000              add [rax],al
00002317  0000              add [rax],al
00002319  0000              add [rax],al
0000231B  0000              add [rax],al
0000231D  0000              add [rax],al
0000231F  0000              add [rax],al
00002321  0000              add [rax],al
00002323  0000              add [rax],al
00002325  0000              add [rax],al
00002327  0000              add [rax],al
00002329  0000              add [rax],al
0000232B  0000              add [rax],al
0000232D  0000              add [rax],al
0000232F  0000              add [rax],al
00002331  0000              add [rax],al
00002333  0000              add [rax],al
00002335  0000              add [rax],al
00002337  0000              add [rax],al
00002339  0000              add [rax],al
0000233B  0000              add [rax],al
0000233D  0000              add [rax],al
0000233F  0000              add [rax],al
00002341  0000              add [rax],al
00002343  0000              add [rax],al
00002345  0000              add [rax],al
00002347  0000              add [rax],al
00002349  0000              add [rax],al
0000234B  0000              add [rax],al
0000234D  0000              add [rax],al
0000234F  0000              add [rax],al
00002351  0000              add [rax],al
00002353  0000              add [rax],al
00002355  0000              add [rax],al
00002357  0000              add [rax],al
00002359  0000              add [rax],al
0000235B  0000              add [rax],al
0000235D  0000              add [rax],al
0000235F  0000              add [rax],al
00002361  0000              add [rax],al
00002363  0000              add [rax],al
00002365  0000              add [rax],al
00002367  0000              add [rax],al
00002369  0000              add [rax],al
0000236B  0000              add [rax],al
0000236D  0000              add [rax],al
0000236F  0000              add [rax],al
00002371  0000              add [rax],al
00002373  0000              add [rax],al
00002375  0000              add [rax],al
00002377  0000              add [rax],al
00002379  0000              add [rax],al
0000237B  0000              add [rax],al
0000237D  0000              add [rax],al
0000237F  0000              add [rax],al
00002381  0000              add [rax],al
00002383  0000              add [rax],al
00002385  0000              add [rax],al
00002387  0000              add [rax],al
00002389  0000              add [rax],al
0000238B  0000              add [rax],al
0000238D  0000              add [rax],al
0000238F  0000              add [rax],al
00002391  0000              add [rax],al
00002393  0000              add [rax],al
00002395  0000              add [rax],al
00002397  0000              add [rax],al
00002399  0000              add [rax],al
0000239B  0000              add [rax],al
0000239D  0000              add [rax],al
0000239F  0000              add [rax],al
000023A1  0000              add [rax],al
000023A3  0000              add [rax],al
000023A5  0000              add [rax],al
000023A7  0000              add [rax],al
000023A9  0000              add [rax],al
000023AB  0000              add [rax],al
000023AD  0000              add [rax],al
000023AF  0000              add [rax],al
000023B1  0000              add [rax],al
000023B3  0000              add [rax],al
000023B5  0000              add [rax],al
000023B7  0000              add [rax],al
000023B9  0000              add [rax],al
000023BB  0000              add [rax],al
000023BD  0000              add [rax],al
000023BF  0000              add [rax],al
000023C1  0000              add [rax],al
000023C3  0000              add [rax],al
000023C5  0000              add [rax],al
000023C7  0000              add [rax],al
000023C9  0000              add [rax],al
000023CB  0000              add [rax],al
000023CD  0000              add [rax],al
000023CF  0000              add [rax],al
000023D1  0000              add [rax],al
000023D3  0000              add [rax],al
000023D5  0000              add [rax],al
000023D7  0000              add [rax],al
000023D9  0000              add [rax],al
000023DB  0000              add [rax],al
000023DD  0000              add [rax],al
000023DF  0000              add [rax],al
000023E1  0000              add [rax],al
000023E3  0000              add [rax],al
000023E5  0000              add [rax],al
000023E7  0000              add [rax],al
000023E9  0000              add [rax],al
000023EB  0000              add [rax],al
000023ED  0000              add [rax],al
000023EF  0000              add [rax],al
000023F1  0000              add [rax],al
000023F3  0000              add [rax],al
000023F5  0000              add [rax],al
000023F7  0000              add [rax],al
000023F9  0000              add [rax],al
000023FB  0000              add [rax],al
000023FD  0000              add [rax],al
000023FF  0000              add [rax],al
00002401  0000              add [rax],al
00002403  0000              add [rax],al
00002405  0000              add [rax],al
00002407  0000              add [rax],al
00002409  0000              add [rax],al
0000240B  0000              add [rax],al
0000240D  0000              add [rax],al
0000240F  0000              add [rax],al
00002411  0000              add [rax],al
00002413  0000              add [rax],al
00002415  0000              add [rax],al
00002417  0000              add [rax],al
00002419  0000              add [rax],al
0000241B  0000              add [rax],al
0000241D  0000              add [rax],al
0000241F  0000              add [rax],al
00002421  0000              add [rax],al
00002423  0000              add [rax],al
00002425  0000              add [rax],al
00002427  0000              add [rax],al
00002429  0000              add [rax],al
0000242B  0000              add [rax],al
0000242D  0000              add [rax],al
0000242F  0000              add [rax],al
00002431  0000              add [rax],al
00002433  0000              add [rax],al
00002435  0000              add [rax],al
00002437  0000              add [rax],al
00002439  0000              add [rax],al
0000243B  0000              add [rax],al
0000243D  0000              add [rax],al
0000243F  0000              add [rax],al
00002441  0000              add [rax],al
00002443  0000              add [rax],al
00002445  0000              add [rax],al
00002447  0000              add [rax],al
00002449  0000              add [rax],al
0000244B  0000              add [rax],al
0000244D  0000              add [rax],al
0000244F  0000              add [rax],al
00002451  0000              add [rax],al
00002453  0000              add [rax],al
00002455  0000              add [rax],al
00002457  0000              add [rax],al
00002459  0000              add [rax],al
0000245B  0000              add [rax],al
0000245D  0000              add [rax],al
0000245F  0000              add [rax],al
00002461  0000              add [rax],al
00002463  0000              add [rax],al
00002465  0000              add [rax],al
00002467  0000              add [rax],al
00002469  0000              add [rax],al
0000246B  0000              add [rax],al
0000246D  0000              add [rax],al
0000246F  0000              add [rax],al
00002471  0000              add [rax],al
00002473  0000              add [rax],al
00002475  0000              add [rax],al
00002477  0000              add [rax],al
00002479  0000              add [rax],al
0000247B  0000              add [rax],al
0000247D  0000              add [rax],al
0000247F  0000              add [rax],al
00002481  0000              add [rax],al
00002483  0000              add [rax],al
00002485  0000              add [rax],al
00002487  0000              add [rax],al
00002489  0000              add [rax],al
0000248B  0000              add [rax],al
0000248D  0000              add [rax],al
0000248F  0000              add [rax],al
00002491  0000              add [rax],al
00002493  0000              add [rax],al
00002495  0000              add [rax],al
00002497  0000              add [rax],al
00002499  0000              add [rax],al
0000249B  0000              add [rax],al
0000249D  0000              add [rax],al
0000249F  0000              add [rax],al
000024A1  0000              add [rax],al
000024A3  0000              add [rax],al
000024A5  0000              add [rax],al
000024A7  0000              add [rax],al
000024A9  0000              add [rax],al
000024AB  0000              add [rax],al
000024AD  0000              add [rax],al
000024AF  0000              add [rax],al
000024B1  0000              add [rax],al
000024B3  0000              add [rax],al
000024B5  0000              add [rax],al
000024B7  0000              add [rax],al
000024B9  0000              add [rax],al
000024BB  0000              add [rax],al
000024BD  0000              add [rax],al
000024BF  0000              add [rax],al
000024C1  0000              add [rax],al
000024C3  0000              add [rax],al
000024C5  0000              add [rax],al
000024C7  0000              add [rax],al
000024C9  0000              add [rax],al
000024CB  0000              add [rax],al
000024CD  0000              add [rax],al
000024CF  0000              add [rax],al
000024D1  0000              add [rax],al
000024D3  0000              add [rax],al
000024D5  0000              add [rax],al
000024D7  0000              add [rax],al
000024D9  0000              add [rax],al
000024DB  0000              add [rax],al
000024DD  0000              add [rax],al
000024DF  0000              add [rax],al
000024E1  0000              add [rax],al
000024E3  0000              add [rax],al
000024E5  0000              add [rax],al
000024E7  0000              add [rax],al
000024E9  0000              add [rax],al
000024EB  0000              add [rax],al
000024ED  0000              add [rax],al
000024EF  0000              add [rax],al
000024F1  0000              add [rax],al
000024F3  0000              add [rax],al
000024F5  0000              add [rax],al
000024F7  0000              add [rax],al
000024F9  0000              add [rax],al
000024FB  0000              add [rax],al
000024FD  0000              add [rax],al
000024FF  0000              add [rax],al
00002501  1010              adc [rax],dl
00002503  1010              adc [rax],dl
00002505  1010              adc [rax],dl
00002507  FE                db 0xfe
00002508  1010              adc [rax],dl
0000250A  1010              adc [rax],dl
0000250C  1010              adc [rax],dl
0000250E  1000              adc [rax],al
00002510  0000              add [rax],al
00002512  0206              add al,[rsi]
00002514  0E                db 0x0e
00002515  1E                db 0x1e
00002516  3E7E3E            ds jng 0x2557
00002519  1E                db 0x1e
0000251A  0E                db 0x0e
0000251B  06                db 0x06
0000251C  0200              add al,[rax]
0000251E  0000              add [rax],al
00002520  0010              add [rax],dl
00002522  38541010          cmp [rax+rdx+0x10],dl
00002526  1010              adc [rax],dl
00002528  1010              adc [rax],dl
0000252A  10543810          adc [rax+rdi+0x10],dl
0000252E  0000              add [rax],al
00002530  0000              add [rax],al
00002532  2424              and al,0x24
00002534  2424              and al,0x24
00002536  2424              and al,0x24
00002538  2424              and al,0x24
0000253A  0000              add [rax],al
0000253C  2424              and al,0x24
0000253E  0000              add [rax],al
00002540  0000              add [rax],al
00002542  3454              xor al,0x54
00002544  54                push rsp
00002545  54                push rsp
00002546  54                push rsp
00002547  54                push rsp
00002548  3414              xor al,0x14
0000254A  1414              adc al,0x14
0000254C  1414              adc al,0x14
0000254E  0000              add [rax],al
00002550  0010              add [rax],dl
00002552  1010              adc [rax],dl
00002554  1010              adc [rax],dl
00002556  10FE              adc dh,bh
00002558  0000              add [rax],al
0000255A  0000              add [rax],al
0000255C  0000              add [rax],al
0000255E  0000              add [rax],al
00002560  0000              add [rax],al
00002562  0000              add [rax],al
00002564  0000              add [rax],al
00002566  00FE              add dh,bh
00002568  1010              adc [rax],dl
0000256A  1010              adc [rax],dl
0000256C  1010              adc [rax],dl
0000256E  1000              adc [rax],al
00002570  0010              add [rax],dl
00002572  1010              adc [rax],dl
00002574  1010              adc [rax],dl
00002576  10F0              adc al,dh
00002578  1010              adc [rax],dl
0000257A  1010              adc [rax],dl
0000257C  1010              adc [rax],dl
0000257E  1000              adc [rax],al
00002580  0000              add [rax],al
00002582  1038              adc [rax],bh
00002584  54                push rsp
00002585  1010              adc [rax],dl
00002587  1010              adc [rax],dl
00002589  1010              adc [rax],dl
0000258B  1010              adc [rax],dl
0000258D  1000              adc [rax],al
0000258F  0000              add [rax],al
00002591  1010              adc [rax],dl
00002593  1010              adc [rax],dl
00002595  1010              adc [rax],dl
00002597  1E                db 0x1e
00002598  1010              adc [rax],dl
0000259A  1010              adc [rax],dl
0000259C  1010              adc [rax],dl
0000259E  1000              adc [rax],al
000025A0  0000              add [rax],al
000025A2  0000              add [rax],al
000025A4  0000              add [rax],al
000025A6  08047E            or [rsi+rdi*2],al
000025A9  0408              add al,0x8
000025AB  0000              add [rax],al
000025AD  0000              add [rax],al
000025AF  0000              add [rax],al
000025B1  0000              add [rax],al
000025B3  0000              add [rax],al
000025B5  0010              add [rax],dl
000025B7  207E20            and [rsi+0x20],bh
000025BA  1000              adc [rax],al
000025BC  0000              add [rax],al
000025BE  0000              add [rax],al
000025C0  0000              add [rax],al
000025C2  0000              add [rax],al
000025C4  0000              add [rax],al
000025C6  0000              add [rax],al
000025C8  0000              add [rax],al
000025CA  0000              add [rax],al
000025CC  0000              add [rax],al
000025CE  0000              add [rax],al
000025D0  0000              add [rax],al
000025D2  0000              add [rax],al
000025D4  0000              add [rax],al
000025D6  0000              add [rax],al
000025D8  0000              add [rax],al
000025DA  0000              add [rax],al
000025DC  0000              add [rax],al
000025DE  0000              add [rax],al
000025E0  0000              add [rax],al
000025E2  0000              add [rax],al
000025E4  0000              add [rax],al
000025E6  0000              add [rax],al
000025E8  0000              add [rax],al
000025EA  0000              add [rax],al
000025EC  0000              add [rax],al
000025EE  0000              add [rax],al
000025F0  0000              add [rax],al
000025F2  0000              add [rax],al
000025F4  0000              add [rax],al
000025F6  0000              add [rax],al
000025F8  0000              add [rax],al
000025FA  0000              add [rax],al
000025FC  0000              add [rax],al
000025FE  0000              add [rax],al
00002600  0000              add [rax],al
00002602  0000              add [rax],al
00002604  0000              add [rax],al
00002606  0000              add [rax],al
00002608  0000              add [rax],al
0000260A  0000              add [rax],al
0000260C  0000              add [rax],al
0000260E  0000              add [rax],al
00002610  0000              add [rax],al
00002612  0018              add [rax],bl
00002614  1818              sbb [rax],bl
00002616  1818              sbb [rax],bl
00002618  1818              sbb [rax],bl
0000261A  1000              adc [rax],al
0000261C  1818              sbb [rax],bl
0000261E  0000              add [rax],al
00002620  0000              add [rax],al
00002622  2424              and al,0x24
00002624  2400              and al,0x0
00002626  0000              add [rax],al
00002628  0000              add [rax],al
0000262A  0000              add [rax],al
0000262C  0000              add [rax],al
0000262E  0000              add [rax],al
00002630  0000              add [rax],al
00002632  001414            add [rsp+rdx],dl
00002635  147F              adc al,0x7f
00002637  1424              adc al,0x24
00002639  24FE              and al,0xfe
0000263B  2828              sub [rax],ch
0000263D  2800              sub [rax],al
0000263F  0000              add [rax],al
00002641  0000              add [rax],al
00002643  3E6848483018      ds push qword 0x18304848
00002649  0C0A              or al,0xa
0000264B  0A0E              or cl,[rsi]
0000264D  7C00              jl 0x264f
0000264F  0000              add [rax],al
00002651  007048            add [rax+0x48],dh
00002654  884B76            mov [rbx+0x76],cl
00002657  0810              or [rax],dl
00002659  6E                outsb
0000265A  D211              rcl byte [rcx],cl
0000265C  120E              adc cl,[rsi]
0000265E  0000              add [rax],al
00002660  0000              add [rax],al
00002662  0038              add [rax],bh
00002664  64442C38          fs sub al,0x38
00002668  724A              jc 0x26b4
0000266A  8EC6              mov es,esi
0000266C  463B00            cmp r8d,[rax]
0000266F  0000              add [rax],al
00002671  0018              add [rax],bl
00002673  1818              sbb [rax],bl
00002675  0000              add [rax],al
00002677  0000              add [rax],al
00002679  0000              add [rax],al
0000267B  0000              add [rax],al
0000267D  0000              add [rax],al
0000267F  000408            add [rax+rcx],al
00002682  1010              adc [rax],dl
00002684  1020              adc [rax],ah
00002686  2020              and [rax],ah
00002688  2020              and [rax],ah
0000268A  2010              and [rax],dl
0000268C  1010              adc [rax],dl
0000268E  080420            or [rax],al
00002691  1010              adc [rax],dl
00002693  0808              or [rax],cl
00002695  0404              add al,0x4
00002697  0404              add al,0x4
00002699  0404              add al,0x4
0000269B  0808              or [rax],cl
0000269D  1010              adc [rax],dl
0000269F  2000              and [rax],al
000026A1  0000              add [rax],al
000026A3  0018              add [rax],bl
000026A5  18D2              sbb dl,dl
000026A7  3C18              cmp al,0x18
000026A9  2424              and al,0x24
000026AB  0000              add [rax],al
000026AD  0000              add [rax],al
000026AF  0000              add [rax],al
000026B1  0000              add [rax],al
000026B3  0000              add [rax],al
000026B5  1818              sbb [rax],bl
000026B7  18FF              sbb bh,bh
000026B9  1818              sbb [rax],bl
000026BB  1800              sbb [rax],al
000026BD  0000              add [rax],al
000026BF  0000              add [rax],al
000026C1  0000              add [rax],al
000026C3  0000              add [rax],al
000026C5  0000              add [rax],al
000026C7  0000              add [rax],al
000026C9  0000              add [rax],al
000026CB  0008              add [rax],cl
000026CD  1810              sbb [rax],dl
000026CF  2000              and [rax],al
000026D1  0000              add [rax],al
000026D3  0000              add [rax],al
000026D5  0000              add [rax],al
000026D7  007E00            add [rsi+0x0],bh
000026DA  0000              add [rax],al
000026DC  0000              add [rax],al
000026DE  0000              add [rax],al
000026E0  0000              add [rax],al
000026E2  0000              add [rax],al
000026E4  0000              add [rax],al
000026E6  0000              add [rax],al
000026E8  0000              add [rax],al
000026EA  0000              add [rax],al
000026EC  1818              sbb [rax],bl
000026EE  0000              add [rax],al
000026F0  0000              add [rax],al
000026F2  020404            add al,[rsp+rax]
000026F5  0C08              or al,0x8
000026F7  0810              or [rax],dl
000026F9  1030              adc [rax],dh
000026FB  2020              and [rax],ah
000026FD  400000            add [rax],al
00002700  0000              add [rax],al
00002702  003C24            add [rsp],bh
00002705  42                rex.x
00002706  425A              pop rdx
00002708  5A                pop rdx
00002709  5A                pop rdx
0000270A  42                rex.x
0000270B  42                rex.x
0000270C  263C00            es cmp al,0x0
0000270F  0000              add [rax],al
00002711  0000              add [rax],al
00002713  1838              sbb [rax],bh
00002715  6808080808        push qword 0x8080808
0000271A  0808              or [rax],cl
0000271C  0808              or [rax],cl
0000271E  0000              add [rax],al
00002720  0000              add [rax],al
00002722  003C46            add [rsi+rax*2],bh
00002725  0202              add al,[rdx]
00002727  06                db 0x06
00002728  0408              add al,0x8
0000272A  1030              adc [rax],dh
0000272C  60                db 0x60
0000272D  7E00              jng 0x272f
0000272F  0000              add [rax],al
00002731  0000              add [rax],al
00002733  3C46              cmp al,0x46
00002735  0202              add al,[rdx]
00002737  06                db 0x06
00002738  1806              sbb [rsi],al
0000273A  0202              add al,[rdx]
0000273C  463C00            cmp al,0x0
0000273F  0000              add [rax],al
00002741  0000              add [rax],al
00002743  0C1C              or al,0x1c
00002745  1424              adc al,0x24
00002747  2444              and al,0x44
00002749  44FF0404          inc dword [rsp+rax]
0000274D  0400              add al,0x0
0000274F  0000              add [rax],al
00002751  0000              add [rax],al
00002753  7E60              jng 0x27b5
00002755  40                rex
00002756  407C06            jl 0x275f
00002759  0202              add al,[rdx]
0000275B  0206              add al,[rsi]
0000275D  7800              js 0x275f
0000275F  0000              add [rax],al
00002761  0000              add [rax],al
00002763  1E                db 0x1e
00002764  306040            xor [rax+0x40],ah
00002767  5C                pop rsp
00002768  66                o16
00002769  42                rex.x
0000276A  42                rex.x
0000276B  42                rex.x
0000276C  263C00            es cmp al,0x0
0000276F  0000              add [rax],al
00002771  0000              add [rax],al
00002773  7E02              jng 0x2777
00002775  06                db 0x06
00002776  0404              add al,0x4
00002778  0808              or [rax],cl
0000277A  1810              sbb [rax],dl
0000277C  1020              adc [rax],ah
0000277E  0000              add [rax],al
00002780  0000              add [rax],al
00002782  003C42            add [rdx+rax*2],bh
00002785  42                rex.x
00002786  42243C            and al,0x3c
00002789  42                rex.x
0000278A  42C2423C          ret 0x3c42
0000278E  0000              add [rax],al
00002790  0000              add [rax],al
00002792  003C66            add [rsi],bh
00002795  42                rex.x
00002796  42                rex.x
00002797  42                rex.x
00002798  663A02            o16 cmp al,[rdx]
0000279B  06                db 0x06
0000279C  0478              add al,0x78
0000279E  0000              add [rax],al
000027A0  0000              add [rax],al
000027A2  0000              add [rax],al
000027A4  0018              add [rax],bl
000027A6  1800              sbb [rax],al
000027A8  0000              add [rax],al
000027AA  0018              add [rax],bl
000027AC  1800              sbb [rax],al
000027AE  0000              add [rax],al
000027B0  0000              add [rax],al
000027B2  0000              add [rax],al
000027B4  0018              add [rax],bl
000027B6  1800              sbb [rax],al
000027B8  0000              add [rax],al
000027BA  0018              add [rax],bl
000027BC  1810              sbb [rax],dl
000027BE  2000              and [rax],al
000027C0  0002              add [rdx],al
000027C2  0408              add al,0x8
000027C4  1830              sbb [rax],dh
000027C6  60                db 0x60
000027C7  40                rex
000027C8  40                rex
000027C9  60                db 0x60
000027CA  3018              xor [rax],bl
000027CC  080402            or [rdx+rax],al
000027CF  0000              add [rax],al
000027D1  0000              add [rax],al
000027D3  0000              add [rax],al
000027D5  00FF              add bh,bh
000027D7  0000              add [rax],al
000027D9  00FF              add bh,bh
000027DB  0000              add [rax],al
000027DD  0000              add [rax],al
000027DF  0000              add [rax],al
000027E1  402010            and [rax],dl
000027E4  180C06            sbb [rsi+rax],cl
000027E7  0202              add al,[rdx]
000027E9  06                db 0x06
000027EA  0C18              or al,0x18
000027EC  1020              adc [rax],ah
000027EE  400000            add [rax],al
000027F1  007C0602          add [rsi+rax+0x2],bh
000027F5  02040C            add al,[rsp+rcx]
000027F8  0810              or [rax],dl
000027FA  1000              adc [rax],al
000027FC  1010              adc [rax],dl
000027FE  0000              add [rax],al
00002800  0000              add [rax],al
00002802  003C62            add [rdx],bh
00002805  5E                pop rsi
00002806  A5                movsd
00002807  A5                movsd
00002808  A5                movsd
00002809  AA                stosb
0000280A  AA                stosb
0000280B  7662              jna 0x286f
0000280D  3C00              cmp al,0x0
0000280F  0000              add [rax],al
00002811  0000              add [rax],al
00002813  1818              sbb [rax],bl
00002815  182424            sbb [rsp],ah
00002818  2424              and al,0x24
0000281A  7E42              jng 0x285e
0000281C  42C3              ret
0000281E  0000              add [rax],al
00002820  0000              add [rax],al
00002822  007C4642          add [rsi+rax*2+0x42],bh
00002826  42                rex.x
00002827  447846            js 0x2870
0000282A  42                rex.x
0000282B  42                rex.x
0000282C  467C00            jl 0x282f
0000282F  0000              add [rax],al
00002831  0000              add [rax],al
00002833  1E                db 0x1e
00002834  306040            xor [rax+0x40],ah
00002837  40                rex
00002838  40                rex
00002839  40                rex
0000283A  40                rex
0000283B  60                db 0x60
0000283C  301E              xor [rsi],bl
0000283E  0000              add [rax],al
00002840  0000              add [rax],al
00002842  007844            add [rax+0x44],bh
00002845  42                rex.x
00002846  42                rex.x
00002847  42                rex.x
00002848  42                rex.x
00002849  42                rex.x
0000284A  42                rex.x
0000284B  42                rex.x
0000284C  447800            js 0x284f
0000284F  0000              add [rax],al
00002851  0000              add [rax],al
00002853  7E40              jng 0x2895
00002855  40                rex
00002856  40                rex
00002857  407E40            jng 0x289a
0000285A  40                rex
0000285B  40                rex
0000285C  407E00            jng 0x285f
0000285F  0000              add [rax],al
00002861  0000              add [rax],al
00002863  7E40              jng 0x28a5
00002865  40                rex
00002866  40                rex
00002867  407E40            jng 0x28aa
0000286A  40                rex
0000286B  40                rex
0000286C  40                rex
0000286D  400000            add [rax],al
00002870  0000              add [rax],al
00002872  001E              add [rsi],bl
00002874  206040            and [rax+0x40],ah
00002877  40                rex
00002878  4E                rex.wrx
00002879  42                rex.x
0000287A  42                rex.x
0000287B  42221E            and bl,[rsi]
0000287E  0000              add [rax],al
00002880  0000              add [rax],al
00002882  004242            add [rdx+0x42],al
00002885  42                rex.x
00002886  42                rex.x
00002887  427E42            jng 0x28cc
0000288A  42                rex.x
0000288B  42                rex.x
0000288C  42                rex.x
0000288D  420000            add [rax],al
00002890  0000              add [rax],al
00002892  003C18            add [rax+rbx],bh
00002895  1818              sbb [rax],bl
00002897  1818              sbb [rax],bl
00002899  1818              sbb [rax],bl
0000289B  1818              sbb [rax],bl
0000289D  3C00              cmp al,0x0
0000289F  0000              add [rax],al
000028A1  0000              add [rax],al
000028A3  7C04              jl 0x28a9
000028A5  0404              add al,0x4
000028A7  0404              add al,0x4
000028A9  0404              add al,0x4
000028AB  44                rex.r
000028AC  443800            cmp [rax],r8b
000028AF  0000              add [rax],al
000028B1  0000              add [rax],al
000028B3  62                db 0x62
000028B4  6464687078686C    fs push qword 0x6c687870
000028BB  64                fs
000028BC  62                db 0x62
000028BD  62                db 0x62
000028BE  0000              add [rax],al
000028C0  0000              add [rax],al
000028C2  0020              add [rax],ah
000028C4  2020              and [rax],ah
000028C6  2020              and [rax],ah
000028C8  2020              and [rax],ah
000028CA  2020              and [rax],ah
000028CC  203E              and [rsi],bh
000028CE  0000              add [rax],al
000028D0  0000              add [rax],al
000028D2  006666            add [rsi+0x66],ah
000028D5  6666665A          pop dx
000028D9  5A                pop rdx
000028DA  5A                pop rdx
000028DB  5A                pop rdx
000028DC  5A                pop rdx
000028DD  420000            add [rax],al
000028E0  0000              add [rax],al
000028E2  006262            add [rdx+0x62],ah
000028E5  62                db 0x62
000028E6  52                push rdx
000028E7  52                push rdx
000028E8  52                push rdx
000028E9  4A                rex.wx
000028EA  4A                rex.wx
000028EB  46                rex.rx
000028EC  46                rex.rx
000028ED  460000            add [rax],r8b
000028F0  0000              add [rax],al
000028F2  003C66            add [rsi],bh
000028F5  42                rex.x
000028F6  42                rex.x
000028F7  42                rex.x
000028F8  42                rex.x
000028F9  42                rex.x
000028FA  42                rex.x
000028FB  42                rex.x
000028FC  663C00            o16 cmp al,0x0
000028FF  0000              add [rax],al
00002901  0000              add [rax],al
00002903  7C42              jl 0x2947
00002905  43                rex.xb
00002906  43                rex.xb
00002907  427C40            jl 0x294a
0000290A  40                rex
0000290B  40                rex
0000290C  40                rex
0000290D  400000            add [rax],al
00002910  0000              add [rax],al
00002912  003C66            add [rsi],bh
00002915  42                rex.x
00002916  42                rex.x
00002917  42                rex.x
00002918  42                rex.x
00002919  42                rex.x
0000291A  42                rex.x
0000291B  42                rex.x
0000291C  663C06            o16 cmp al,0x6
0000291F  0300              add eax,[rax]
00002921  0000              add [rax],al
00002923  7C46              jl 0x296b
00002925  42                rex.x
00002926  42                rex.x
00002927  46784C            js 0x2976
0000292A  44                rex.r
0000292B  46                rex.rx
0000292C  42                rex.x
0000292D  430000            add [r8],al
00002930  0000              add [rax],al
00002932  003C60            add [rax],bh
00002935  40                rex
00002936  403018            xor [rax],bl
00002939  0402              add al,0x2
0000293B  0206              add al,[rsi]
0000293D  7C00              jl 0x293f
0000293F  0000              add [rax],al
00002941  0000              add [rax],al
00002943  FF18              call dword far [rax]
00002945  1818              sbb [rax],bl
00002947  1818              sbb [rax],bl
00002949  1818              sbb [rax],bl
0000294B  1818              sbb [rax],bl
0000294D  1800              sbb [rax],al
0000294F  0000              add [rax],al
00002951  0000              add [rax],al
00002953  42                rex.x
00002954  42                rex.x
00002955  42                rex.x
00002956  42                rex.x
00002957  42                rex.x
00002958  42                rex.x
00002959  42                rex.x
0000295A  42                rex.x
0000295B  42                rex.x
0000295C  663C00            o16 cmp al,0x0
0000295F  0000              add [rax],al
00002961  0000              add [rax],al
00002963  42                rex.x
00002964  42                rex.x
00002965  42                rex.x
00002966  662424            o16 and al,0x24
00002969  242C              and al,0x2c
0000296B  1818              sbb [rax],bl
0000296D  1800              sbb [rax],al
0000296F  0000              add [rax],al
00002971  0000              add [rax],al
00002973  819B5A5A5A5A5A6A  sbb dword [rbx+0x5a5a5a5a],0x66666a5a
         -6666
0000297D  640000            add [fs:rax],al
00002980  0000              add [rax],al
00002982  004266            add [rdx+0x66],al
00002985  241C              and al,0x1c
00002987  1818              sbb [rax],bl
00002989  182424            sbb [rsp],ah
0000298C  42                rex.x
0000298D  420000            add [rax],al
00002990  0000              add [rax],al
00002992  004242            add [rdx+0x42],al
00002995  2424              and al,0x24
00002997  1818              sbb [rax],bl
00002999  1818              sbb [rax],bl
0000299B  1818              sbb [rax],bl
0000299D  1800              sbb [rax],al
0000299F  0000              add [rax],al
000029A1  0000              add [rax],al
000029A3  7E06              jng 0x29ab
000029A5  040C              add al,0xc
000029A7  0810              or [rax],dl
000029A9  1020              adc [rax],ah
000029AB  20407E            and [rax+0x7e],al
000029AE  0000              add [rax],al
000029B0  1810              sbb [rax],dl
000029B2  1010              adc [rax],dl
000029B4  1010              adc [rax],dl
000029B6  1010              adc [rax],dl
000029B8  1010              adc [rax],dl
000029BA  1010              adc [rax],dl
000029BC  1010              adc [rax],dl
000029BE  1018              adc [rax],bl
000029C0  0000              add [rax],al
000029C2  402020            and [rax],spl
000029C5  3010              xor [rax],dl
000029C7  1008              adc [rax],cl
000029C9  080C04            or [rsp+rax],cl
000029CC  0402              add al,0x2
000029CE  0000              add [rax],al
000029D0  1808              sbb [rax],cl
000029D2  0808              or [rax],cl
000029D4  0808              or [rax],cl
000029D6  0808              or [rax],cl
000029D8  0808              or [rax],cl
000029DA  0808              or [rax],cl
000029DC  0808              or [rax],cl
000029DE  0818              or [rax],bl
000029E0  0000              add [rax],al
000029E2  1818              sbb [rax],bl
000029E4  2424              and al,0x24
000029E6  42                rex.x
000029E7  420000            add [rax],al
000029EA  0000              add [rax],al
000029EC  0000              add [rax],al
000029EE  0000              add [rax],al
000029F0  0000              add [rax],al
000029F2  0000              add [rax],al
000029F4  0000              add [rax],al
000029F6  0000              add [rax],al
000029F8  0000              add [rax],al
000029FA  0000              add [rax],al
000029FC  0000              add [rax],al
000029FE  00FF              add bh,bh
00002A00  3018              xor [rax],bl
00002A02  080C00            or [rax+rax],cl
00002A05  0000              add [rax],al
00002A07  0000              add [rax],al
00002A09  0000              add [rax],al
00002A0B  0000              add [rax],al
00002A0D  0000              add [rax],al
00002A0F  0000              add [rax],al
00002A11  0000              add [rax],al
00002A13  0000              add [rax],al
00002A15  003C06            add [rsi+rax],bh
00002A18  023E              add bh,[rsi]
00002A1A  62                db 0x62
00002A1B  42                rex.x
00002A1C  463A00            cmp r8b,[rax]
00002A1F  0000              add [rax],al
00002A21  004040            add [rax+0x40],al
00002A24  40                rex
00002A25  405C              pop rsp
00002A27  66                o16
00002A28  42                rex.x
00002A29  42                rex.x
00002A2A  42                rex.x
00002A2B  42                rex.x
00002A2C  665C              pop sp
00002A2E  0000              add [rax],al
00002A30  0000              add [rax],al
00002A32  0000              add [rax],al
00002A34  0000              add [rax],al
00002A36  1E                db 0x1e
00002A37  204040            and [rax+0x40],al
00002A3A  40                rex
00002A3B  40201E            and [rsi],bl
00002A3E  0000              add [rax],al
00002A40  0000              add [rax],al
00002A42  0202              add al,[rdx]
00002A44  0202              add al,[rdx]
00002A46  3A6642            cmp ah,[rsi+0x42]
00002A49  42                rex.x
00002A4A  42                rex.x
00002A4B  42                rex.x
00002A4C  663A00            o16 cmp al,[rax]
00002A4F  0000              add [rax],al
00002A51  0000              add [rax],al
00002A53  0000              add [rax],al
00002A55  003C62            add [rdx],bh
00002A58  427E40            jng 0x2a9b
00002A5B  40                rex
00002A5C  60                db 0x60
00002A5D  3E0000            add [ds:rax],al
00002A60  0000              add [rax],al
00002A62  0E                db 0x0e
00002A63  1010              adc [rax],dl
00002A65  107E10            adc [rsi+0x10],bh
00002A68  1010              adc [rax],dl
00002A6A  1010              adc [rax],dl
00002A6C  1010              adc [rax],dl
00002A6E  0000              add [rax],al
00002A70  0000              add [rax],al
00002A72  0000              add [rax],al
00002A74  0000              add [rax],al
00002A76  3A6642            cmp ah,[rsi+0x42]
00002A79  42                rex.x
00002A7A  42                rex.x
00002A7B  663A02            o16 cmp al,[rdx]
00002A7E  0478              add al,0x78
00002A80  0000              add [rax],al
00002A82  40                rex
00002A83  40                rex
00002A84  40                rex
00002A85  405C              pop rsp
00002A87  66                o16
00002A88  42                rex.x
00002A89  42                rex.x
00002A8A  42                rex.x
00002A8B  42                rex.x
00002A8C  42                rex.x
00002A8D  420000            add [rax],al
00002A90  0000              add [rax],al
00002A92  1818              sbb [rax],bl
00002A94  0000              add [rax],al
00002A96  7808              js 0x2aa0
00002A98  0808              or [rax],cl
00002A9A  0808              or [rax],cl
00002A9C  087E00            or [rsi+0x0],bh
00002A9F  0000              add [rax],al
00002AA1  0008              add [rax],cl
00002AA3  0800              or [rax],al
00002AA5  0038              add [rax],bh
00002AA7  0808              or [rax],cl
00002AA9  0808              or [rax],cl
00002AAB  084848            or [rax+0x48],cl
00002AAE  487800            o64 js 0x2ab1
00002AB1  006060            add [rax+0x60],ah
00002AB4  60                db 0x60
00002AB5  60                db 0x60
00002AB6  62                db 0x62
00002AB7  646870686464      fs push qword 0x64646870
00002ABD  62                db 0x62
00002ABE  0000              add [rax],al
00002AC0  0000              add [rax],al
00002AC2  3818              cmp [rax],bl
00002AC4  1818              sbb [rax],bl
00002AC6  1818              sbb [rax],bl
00002AC8  1818              sbb [rax],bl
00002ACA  1818              sbb [rax],bl
00002ACC  187E00            sbb [rsi+0x0],bh
00002ACF  0000              add [rax],al
00002AD1  0000              add [rax],al
00002AD3  0000              add [rax],al
00002AD5  00765A            add [rsi+0x5a],dh
00002AD8  5A                pop rdx
00002AD9  4A                rex.wx
00002ADA  4A                rex.wx
00002ADB  4A                rex.wx
00002ADC  4A                rex.wx
00002ADD  4A0000            o64 add [rax],al
00002AE0  0000              add [rax],al
00002AE2  0000              add [rax],al
00002AE4  0000              add [rax],al
00002AE6  5C                pop rsp
00002AE7  66                o16
00002AE8  42                rex.x
00002AE9  42                rex.x
00002AEA  42                rex.x
00002AEB  42                rex.x
00002AEC  42                rex.x
00002AED  420000            add [rax],al
00002AF0  0000              add [rax],al
00002AF2  0000              add [rax],al
00002AF4  0000              add [rax],al
00002AF6  3C66              cmp al,0x66
00002AF8  42                rex.x
00002AF9  42                rex.x
00002AFA  42                rex.x
00002AFB  42                rex.x
00002AFC  663C00            o16 cmp al,0x0
00002AFF  0000              add [rax],al
00002B01  0000              add [rax],al
00002B03  0000              add [rax],al
00002B05  005C6642          add [rsi+0x42],bl
00002B09  42                rex.x
00002B0A  42                rex.x
00002B0B  42                rex.x
00002B0C  665C              pop sp
00002B0E  40                rex
00002B0F  400000            add [rax],al
00002B12  0000              add [rax],al
00002B14  0000              add [rax],al
00002B16  3A6642            cmp ah,[rsi+0x42]
00002B19  42                rex.x
00002B1A  42                rex.x
00002B1B  42                rex.x
00002B1C  663A02            o16 cmp al,[rdx]
00002B1F  0200              add al,[rax]
00002B21  0000              add [rax],al
00002B23  0000              add [rax],al
00002B25  006F30            add [rdi+0x30],ch
00002B28  3020              xor [rax],ah
00002B2A  2020              and [rax],ah
00002B2C  207800            and [rax+0x0],bh
00002B2F  0000              add [rax],al
00002B31  0000              add [rax],al
00002B33  0000              add [rax],al
00002B35  003C60            add [rax],bh
00002B38  60                db 0x60
00002B39  300C02            xor [rdx+rax],cl
00002B3C  06                db 0x06
00002B3D  7C00              jl 0x2b3f
00002B3F  0000              add [rax],al
00002B41  0000              add [rax],al
00002B43  1010              adc [rax],dl
00002B45  107E10            adc [rsi+0x10],bh
00002B48  1010              adc [rax],dl
00002B4A  1010              adc [rax],dl
00002B4C  100E              adc [rsi],cl
00002B4E  0000              add [rax],al
00002B50  0000              add [rax],al
00002B52  0000              add [rax],al
00002B54  0000              add [rax],al
00002B56  42                rex.x
00002B57  42                rex.x
00002B58  42                rex.x
00002B59  42                rex.x
00002B5A  42                rex.x
00002B5B  42                rex.x
00002B5C  663A00            o16 cmp al,[rax]
00002B5F  0000              add [rax],al
00002B61  0000              add [rax],al
00002B63  0000              add [rax],al
00002B65  004242            add [rdx+0x42],al
00002B68  642424            fs and al,0x24
00002B6B  3818              cmp [rax],bl
00002B6D  1800              sbb [rax],al
00002B6F  0000              add [rax],al
00002B71  0000              add [rax],al
00002B73  0000              add [rax],al
00002B75  00C2              add dl,al
00002B77  5A                pop rdx
00002B78  5A                pop rdx
00002B79  5A                pop rdx
00002B7A  5A                pop rdx
00002B7B  6A6C              push byte +0x6c
00002B7D  2400              and al,0x0
00002B7F  0000              add [rax],al
00002B81  0000              add [rax],al
00002B83  0000              add [rax],al
00002B85  004224            add [rdx+0x24],al
00002B88  1818              sbb [rax],bl
00002B8A  182424            sbb [rsp],ah
00002B8D  420000            add [rax],al
00002B90  0000              add [rax],al
00002B92  0000              add [rax],al
00002B94  0000              add [rax],al
00002B96  42                rex.x
00002B97  422424            and al,0x24
00002B9A  3818              cmp [rax],bl
00002B9C  1810              sbb [rax],dl
00002B9E  106000            adc [rax+0x0],ah
00002BA1  0000              add [rax],al
00002BA3  0000              add [rax],al
00002BA5  007E06            add [rsi+0x6],bh
00002BA8  0408              add al,0x8
00002BAA  1020              adc [rax],ah
00002BAC  60                db 0x60
00002BAD  7E00              jng 0x2baf
00002BAF  000C18            add [rax+rbx],cl
00002BB2  1010              adc [rax],dl
00002BB4  1010              adc [rax],dl
00002BB6  1030              adc [rax],dh
00002BB8  3010              xor [rax],dl
00002BBA  1010              adc [rax],dl
00002BBC  1010              adc [rax],dl
00002BBE  180C00            sbb [rax+rax],cl
00002BC1  1818              sbb [rax],bl
00002BC3  1818              sbb [rax],bl
00002BC5  1818              sbb [rax],bl
00002BC7  1800              sbb [rax],al
00002BC9  1818              sbb [rax],bl
00002BCB  1818              sbb [rax],bl
00002BCD  1818              sbb [rax],bl
00002BCF  0030              add [rax],dh
00002BD1  1808              sbb [rax],cl
00002BD3  0808              or [rax],cl
00002BD5  0808              or [rax],cl
00002BD7  0C0C              or al,0xc
00002BD9  0808              or [rax],cl
00002BDB  0808              or [rax],cl
00002BDD  0818              or [rax],bl
00002BDF  3000              xor [rax],al
00002BE1  0000              add [rax],al
00002BE3  0000              add [rax],al
00002BE5  0000              add [rax],al
00002BE7  718E              jno 0x2b77
00002BE9  0000              add [rax],al
00002BEB  0000              add [rax],al
00002BED  0000              add [rax],al
00002BEF  0000              add [rax],al
00002BF1  0000              add [rax],al
00002BF3  E0A0              loopne 0x2b95
00002BF5  A0A0A0A0A0A0A0E0  mov al,[qword 0xe0a0a0a0a0a0a0]
         -00
00002BFE  0000              add [rax],al
00002C00  0000              add [rax],al
00002C02  0001              add [rcx],al
00002C04  0206              add al,[rsi]
00002C06  040F              add al,0xf
00002C08  040F              add al,0xf
00002C0A  0406              add al,0x6
00002C0C  0301              add eax,[rcx]
00002C0E  0000              add [rax],al
00002C10  0000              add [rax],al
00002C12  0000              add [rax],al
00002C14  0000              add [rax],al
00002C16  0000              add [rax],al
00002C18  0000              add [rax],al
00002C1A  0000              add [rax],al
00002C1C  0000              add [rax],al
00002C1E  0000              add [rax],al
00002C20  0000              add [rax],al
00002C22  0000              add [rax],al
00002C24  0000              add [rax],al
00002C26  0000              add [rax],al
00002C28  0000              add [rax],al
00002C2A  0000              add [rax],al
00002C2C  0000              add [rax],al
00002C2E  0000              add [rax],al
00002C30  0000              add [rax],al
00002C32  0000              add [rax],al
00002C34  0000              add [rax],al
00002C36  0000              add [rax],al
00002C38  0000              add [rax],al
00002C3A  0000              add [rax],al
00002C3C  0000              add [rax],al
00002C3E  0000              add [rax],al
00002C40  0000              add [rax],al
00002C42  0000              add [rax],al
00002C44  0000              add [rax],al
00002C46  0000              add [rax],al
00002C48  0000              add [rax],al
00002C4A  0000              add [rax],al
00002C4C  0000              add [rax],al
00002C4E  0000              add [rax],al
00002C50  0000              add [rax],al
00002C52  0000              add [rax],al
00002C54  0000              add [rax],al
00002C56  0031              add [rcx],dh
00002C58  3100              xor [rax],eax
00002C5A  0000              add [rax],al
00002C5C  0000              add [rax],al
00002C5E  0000              add [rax],al
00002C60  0000              add [rax],al
00002C62  0000              add [rax],al
00002C64  0101              add [rcx],eax
00002C66  07                db 0x07
00002C67  0101              add [rcx],eax
00002C69  0101              add [rcx],eax
00002C6B  0100              add [rax],eax
00002C6D  0000              add [rax],al
00002C6F  0000              add [rax],al
00002C71  0000              add [rax],al
00002C73  0001              add [rcx],al
00002C75  0301              add eax,[rcx]
00002C77  07                db 0x07
00002C78  0101              add [rcx],eax
00002C7A  0101              add [rcx],eax
00002C7C  0000              add [rax],al
00002C7E  0000              add [rax],al
00002C80  0000              add [rax],al
00002C82  0040A0            add [rax-0x60],al
00002C85  0000              add [rax],al
00002C87  0000              add [rax],al
00002C89  0000              add [rax],al
00002C8B  0000              add [rax],al
00002C8D  0000              add [rax],al
00002C8F  0000              add [rax],al
00002C91  0030              add [rax],dh
00002C93  284949            sub [rcx+0x49],cl
00002C96  4A3A050A0A1212    o64 cmp al,[rel 0x121236a7]
00002C9D  2100              and [rax],eax
00002C9F  0000              add [rax],al
00002CA1  0000              add [rax],al
00002CA3  0000              add [rax],al
00002CA5  0000              add [rax],al
00002CA7  0000              add [rax],al
00002CA9  0000              add [rax],al
00002CAB  0000              add [rax],al
00002CAD  0000              add [rax],al
00002CAF  0000              add [rax],al
00002CB1  0000              add [rax],al
00002CB3  0000              add [rax],al
00002CB5  030418            add eax,[rax+rbx]
00002CB8  100C02            adc [rdx+rax],cl
00002CBB  0100              add [rax],eax
00002CBD  0000              add [rax],al
00002CBF  0000              add [rax],al
00002CC1  0007              add [rdi],al
00002CC3  1830              sbb [rax],dh
00002CC5  2020              and [rax],ah
00002CC7  2020              and [rax],ah
00002CC9  2020              and [rax],ah
00002CCB  1018              adc [rax],bl
00002CCD  07                db 0x07
00002CCE  0000              add [rax],al
00002CD0  0000              add [rax],al
00002CD2  0000              add [rax],al
00002CD4  0000              add [rax],al
00002CD6  0000              add [rax],al
00002CD8  0000              add [rax],al
00002CDA  0000              add [rax],al
00002CDC  0000              add [rax],al
00002CDE  0000              add [rax],al
00002CE0  0000              add [rax],al
00002CE2  0000              add [rax],al
00002CE4  0000              add [rax],al
00002CE6  0000              add [rax],al
00002CE8  0000              add [rax],al
00002CEA  0000              add [rax],al
00002CEC  0000              add [rax],al
00002CEE  0000              add [rax],al
00002CF0  0000              add [rax],al
00002CF2  0000              add [rax],al
00002CF4  0000              add [rax],al
00002CF6  0000              add [rax],al
00002CF8  0000              add [rax],al
00002CFA  0000              add [rax],al
00002CFC  0000              add [rax],al
00002CFE  0000              add [rax],al
00002D00  0000              add [rax],al
00002D02  0000              add [rax],al
00002D04  0000              add [rax],al
00002D06  0000              add [rax],al
00002D08  0000              add [rax],al
00002D0A  0000              add [rax],al
00002D0C  0000              add [rax],al
00002D0E  0000              add [rax],al
00002D10  0000              add [rax],al
00002D12  0101              add [rcx],eax
00002D14  0100              add [rax],eax
00002D16  0000              add [rax],al
00002D18  0000              add [rax],al
00002D1A  0000              add [rax],al
00002D1C  0000              add [rax],al
00002D1E  0000              add [rax],al
00002D20  0001              add [rcx],al
00002D22  0100              add [rax],eax
00002D24  0100              add [rax],eax
00002D26  0000              add [rax],al
00002D28  0000              add [rax],al
00002D2A  0000              add [rax],al
00002D2C  0000              add [rax],al
00002D2E  0000              add [rax],al
00002D30  0001              add [rcx],al
00002D32  0203              add al,[rbx]
00002D34  0300              add eax,[rax]
00002D36  0000              add [rax],al
00002D38  0000              add [rax],al
00002D3A  0000              add [rax],al
00002D3C  0000              add [rax],al
00002D3E  0000              add [rax],al
00002D40  0003              add [rbx],al
00002D42  0301              add eax,[rcx]
00002D44  0200              add al,[rax]
00002D46  0000              add [rax],al
00002D48  0000              add [rax],al
00002D4A  0000              add [rax],al
00002D4C  0000              add [rax],al
00002D4E  0000              add [rax],al
00002D50  0000              add [rax],al
00002D52  0000              add [rax],al
00002D54  0000              add [rax],al
00002D56  0103              add [rbx],eax
00002D58  0301              add eax,[rcx]
00002D5A  0000              add [rax],al
00002D5C  0000              add [rax],al
00002D5E  0000              add [rax],al
00002D60  0000              add [rax],al
00002D62  0000              add [rax],al
00002D64  0000              add [rax],al
00002D66  0000              add [rax],al
00002D68  0300              add eax,[rax]
00002D6A  0000              add [rax],al
00002D6C  0000              add [rax],al
00002D6E  0000              add [rax],al
00002D70  0000              add [rax],al
00002D72  0000              add [rax],al
00002D74  0000              add [rax],al
00002D76  0000              add [rax],al
00002D78  7F00              jg 0x2d7a
00002D7A  0000              add [rax],al
00002D7C  0000              add [rax],al
00002D7E  0000              add [rax],al
00002D80  0000              add [rax],al
00002D82  0F0000            sldt [rax]
00002D85  0000              add [rax],al
00002D87  0000              add [rax],al
00002D89  0000              add [rax],al
00002D8B  0000              add [rax],al
00002D8D  0000              add [rax],al
00002D8F  0000              add [rax],al
00002D91  003F              add [rdi],bh
00002D93  0909              or [rcx],ecx
00002D95  0900              or [rax],eax
00002D97  0000              add [rax],al
00002D99  0000              add [rax],al
00002D9B  0000              add [rax],al
00002D9D  0000              add [rax],al
00002D9F  0000              add [rax],al
00002DA1  0000              add [rax],al
00002DA3  0000              add [rax],al
00002DA5  0000              add [rax],al
00002DA7  0000              add [rax],al
00002DA9  0000              add [rax],al
00002DAB  0000              add [rax],al
00002DAD  0000              add [rax],al
00002DAF  0000              add [rax],al
00002DB1  2018              and [rax],bl
00002DB3  0403              add al,0x3
00002DB5  0000              add [rax],al
00002DB7  0000              add [rax],al
00002DB9  0000              add [rax],al
00002DBB  0106              add [rsi],eax
00002DBD  0830              or [rax],dh
00002DBF  0000              add [rax],al
00002DC1  0000              add [rax],al
00002DC3  0000              add [rax],al
00002DC5  0E                db 0x0e
00002DC6  3121              xor [rcx],esp
00002DC8  2020              and [rax],ah
00002DCA  2021              and [rcx],ah
00002DCC  310E              xor [rsi],ecx
00002DCE  0000              add [rax],al
00002DD0  0000              add [rax],al
00002DD2  0000              add [rax],al
00002DD4  0000              add [rax],al
00002DD6  0000              add [rax],al
00002DD8  0000              add [rax],al
00002DDA  0000              add [rax],al
00002DDC  0000              add [rax],al
00002DDE  0000              add [rax],al
00002DE0  0000              add [rax],al
00002DE2  0000              add [rax],al
00002DE4  0000              add [rax],al
00002DE6  0000              add [rax],al
00002DE8  0000              add [rax],al
00002DEA  0000              add [rax],al
00002DEC  0000              add [rax],al
00002DEE  0000              add [rax],al
00002DF0  0000              add [rax],al
00002DF2  0000              add [rax],al
00002DF4  0000              add [rax],al
00002DF6  0000              add [rax],al
00002DF8  0000              add [rax],al
00002DFA  0000              add [rax],al
00002DFC  0000              add [rax],al
00002DFE  0000              add [rax],al
00002E00  0000              add [rax],al
00002E02  0000              add [rax],al
00002E04  0000              add [rax],al
00002E06  0000              add [rax],al
00002E08  0000              add [rax],al
00002E0A  0000              add [rax],al
00002E0C  0000              add [rax],al
00002E0E  0000              add [rax],al
00002E10  0000              add [rax],al
00002E12  0100              add [rax],eax
00002E14  0001              add [rcx],al
00002E16  0101              add [rcx],eax
00002E18  0101              add [rcx],eax
00002E1A  0101              add [rcx],eax
00002E1C  0101              add [rcx],eax
00002E1E  0000              add [rax],al
00002E20  0000              add [rax],al
00002E22  0000              add [rax],al
00002E24  0000              add [rax],al
00002E26  0000              add [rax],al
00002E28  0000              add [rax],al
00002E2A  0000              add [rax],al
00002E2C  0000              add [rax],al
00002E2E  0000              add [rax],al
00002E30  0000              add [rax],al
00002E32  0000              add [rax],al
00002E34  0000              add [rax],al
00002E36  0000              add [rax],al
00002E38  0000              add [rax],al
00002E3A  0000              add [rax],al
00002E3C  0000              add [rax],al
00002E3E  0000              add [rax],al
00002E40  0000              add [rax],al
00002E42  0023              add [rbx],ah
00002E44  1C10              sbb al,0x10
00002E46  1010              adc [rax],dl
00002E48  1010              adc [rax],dl
00002E4A  1008              adc [rax],cl
00002E4C  17                db 0x17
00002E4D  2000              and [rax],al
00002E4F  0000              add [rax],al
00002E51  0000              add [rax],al
00002E53  0000              add [rax],al
00002E55  0000              add [rax],al
00002E57  0000              add [rax],al
00002E59  0000              add [rax],al
00002E5B  0000              add [rax],al
00002E5D  0000              add [rax],al
00002E5F  0000              add [rax],al
00002E61  0000              add [rax],al
00002E63  0000              add [rax],al
00002E65  0000              add [rax],al
00002E67  0000              add [rax],al
00002E69  0000              add [rax],al
00002E6B  0000              add [rax],al
00002E6D  0000              add [rax],al
00002E6F  0000              add [rax],al
00002E71  0003              add [rbx],al
00002E73  0202              add al,[rdx]
00002E75  0103              add [rbx],eax
00002E77  0202              add al,[rdx]
00002E79  0100              add [rax],eax
00002E7B  0000              add [rax],al
00002E7D  0201              add al,[rcx]
00002E7F  0000              add [rax],al
00002E81  0006              add [rsi],al
00002E83  06                db 0x06
00002E84  0000              add [rax],al
00002E86  0000              add [rax],al
00002E88  0000              add [rax],al
00002E8A  0000              add [rax],al
00002E8C  0000              add [rax],al
00002E8E  0000              add [rax],al
00002E90  0000              add [rax],al
00002E92  030C13            add ecx,[rbx+rdx]
00002E95  16                db 0x16
00002E96  2424              and al,0x24
00002E98  2C24              sub al,0x24
00002E9A  26130C07          adc ecx,[es:rdi+rax]
00002E9E  0000              add [rax],al
00002EA0  0000              add [rax],al
00002EA2  0300              add eax,[rax]
00002EA4  030403            add eax,[rbx+rax]
00002EA7  0300              add eax,[rax]
00002EA9  0000              add [rax],al
00002EAB  0000              add [rax],al
00002EAD  0000              add [rax],al
00002EAF  0000              add [rax],al
00002EB1  0000              add [rax],al
00002EB3  0001              add [rcx],al
00002EB5  020C13            add cl,[rbx+rdx]
00002EB8  120D02010000      adc cl,[rel 0x2fc0]
00002EBE  0000              add [rax],al
00002EC0  0000              add [rax],al
00002EC2  0000              add [rax],al
00002EC4  0000              add [rax],al
00002EC6  0000              add [rax],al
00002EC8  0000              add [rax],al
00002ECA  0000              add [rax],al
00002ECC  0000              add [rax],al
00002ECE  0000              add [rax],al
00002ED0  0000              add [rax],al
00002ED2  0000              add [rax],al
00002ED4  0000              add [rax],al
00002ED6  0000              add [rax],al
00002ED8  0000              add [rax],al
00002EDA  0000              add [rax],al
00002EDC  0000              add [rax],al
00002EDE  0000              add [rax],al
00002EE0  0001              add [rcx],al
00002EE2  06                db 0x06
00002EE3  0813              or [rbx],dl
00002EE5  2222              and ah,[rdx]
00002EE7  2322              and esp,[rdx]
00002EE9  2212              and dl,[rdx]
00002EEB  1208              adc cl,[rax]
00002EED  07                db 0x07
00002EEE  0000              add [rax],al
00002EF0  0000              add [rax],al
00002EF2  0000              add [rax],al
00002EF4  0000              add [rax],al
00002EF6  0000              add [rax],al
00002EF8  0000              add [rax],al
00002EFA  0000              add [rax],al
00002EFC  0000              add [rax],al
00002EFE  0000              add [rax],al
00002F00  0001              add [rcx],al
00002F02  0202              add al,[rdx]
00002F04  0100              add [rax],eax
00002F06  0000              add [rax],al
00002F08  0000              add [rax],al
00002F0A  0000              add [rax],al
00002F0C  0000              add [rax],al
00002F0E  0000              add [rax],al
00002F10  0000              add [rax],al
00002F12  0000              add [rax],al
00002F14  0000              add [rax],al
00002F16  07                db 0x07
00002F17  0000              add [rax],al
00002F19  0000              add [rax],al
00002F1B  0007              add [rdi],al
00002F1D  0000              add [rax],al
00002F1F  0000              add [rax],al
00002F21  0100              add [rax],eax
00002F23  0001              add [rcx],al
00002F25  0000              add [rax],al
00002F27  0000              add [rax],al
00002F29  0000              add [rax],al
00002F2B  0000              add [rax],al
00002F2D  0000              add [rax],al
00002F2F  0000              add [rax],al
00002F31  0100              add [rax],eax
00002F33  0001              add [rcx],al
00002F35  0000              add [rax],al
00002F37  0000              add [rax],al
00002F39  0000              add [rax],al
00002F3B  0000              add [rax],al
00002F3D  0000              add [rax],al
00002F3F  0000              add [rax],al
00002F41  0000              add [rax],al
00002F43  0100              add [rax],eax
00002F45  0000              add [rax],al
00002F47  0000              add [rax],al
00002F49  0000              add [rax],al
00002F4B  0000              add [rax],al
00002F4D  0000              add [rax],al
00002F4F  0000              add [rax],al
00002F51  0000              add [rax],al
00002F53  0000              add [rax],al
00002F55  0000              add [rax],al
00002F57  0000              add [rax],al
00002F59  0000              add [rax],al
00002F5B  0000              add [rax],al
00002F5D  0000              add [rax],al
00002F5F  0000              add [rax],al
00002F61  0007              add [rdi],al
00002F63  07                db 0x07
00002F64  0F07              loadall
00002F66  07                db 0x07
00002F67  0300              add eax,[rax]
00002F69  0000              add [rax],al
00002F6B  0000              add [rax],al
00002F6D  0000              add [rax],al
00002F6F  0000              add [rax],al
00002F71  0000              add [rax],al
00002F73  0000              add [rax],al
00002F75  0000              add [rax],al
00002F77  0101              add [rcx],eax
00002F79  0000              add [rax],al
00002F7B  0000              add [rax],al
00002F7D  0000              add [rax],al
00002F7F  0000              add [rax],al
00002F81  0000              add [rax],al
00002F83  0000              add [rax],al
00002F85  0000              add [rax],al
00002F87  0000              add [rax],al
00002F89  0000              add [rax],al
00002F8B  0000              add [rax],al
00002F8D  0101              add [rcx],eax
00002F8F  0300              add eax,[rax]
00002F91  0000              add [rax],al
00002F93  0000              add [rax],al
00002F95  0000              add [rax],al
00002F97  0000              add [rax],al
00002F99  0000              add [rax],al
00002F9B  0000              add [rax],al
00002F9D  0000              add [rax],al
00002F9F  0000              add [rax],al
00002FA1  0003              add [rbx],al
00002FA3  0404              add al,0x4
00002FA5  0201              add al,[rcx]
00002FA7  0300              add eax,[rax]
00002FA9  0000              add [rax],al
00002FAB  0000              add [rax],al
00002FAD  0000              add [rax],al
00002FAF  0000              add [rax],al
00002FB1  0000              add [rax],al
00002FB3  3209              xor cl,[rcx]
00002FB5  0403              add al,0x3
00002FB7  0000              add [rax],al
00002FB9  0001              add [rcx],al
00002FBB  06                db 0x06
00002FBC  0932              or [rdx],esi
00002FBE  0000              add [rax],al
00002FC0  0000              add [rax],al
00002FC2  0404              add al,0x4
00002FC4  0404              add al,0x4
00002FC6  0400              add al,0x0
00002FC8  0102              add [rdx],eax
00002FCA  0408              add al,0x8
00002FCC  1000              adc [rax],al
00002FCE  0000              add [rax],al
00002FD0  0000              add [rax],al
00002FD2  0404              add al,0x4
00002FD4  0404              add al,0x4
00002FD6  0400              add al,0x0
00002FD8  0102              add [rdx],eax
00002FDA  0408              add al,0x8
00002FDC  1000              adc [rax],al
00002FDE  0000              add [rax],al
00002FE0  0000              add [rax],al
00002FE2  0E                db 0x0e
00002FE3  1206              adc al,[rsi]
00002FE5  1212              adc dl,[rdx]
00002FE7  0C01              or al,0x1
00002FE9  020404            add al,[rsp+rax]
00002FEC  0800              or [rax],al
00002FEE  0000              add [rax],al
00002FF0  0000              add [rax],al
00002FF2  0000              add [rax],al
00002FF4  0000              add [rax],al
00002FF6  0001              add [rcx],al
00002FF8  0302              add eax,[rdx]
00002FFA  0404              add al,0x4
00002FFC  06                db 0x06
00002FFD  0300              add eax,[rax]
00002FFF  0000              add [rax],al
00003001  0000              add [rax],al
00003003  0000              add [rax],al
00003005  0000              add [rax],al
00003007  0000              add [rax],al
00003009  0000              add [rax],al
0000300B  0000              add [rax],al
0000300D  0000              add [rax],al
0000300F  0000              add [rax],al
00003011  0000              add [rax],al
00003013  0000              add [rax],al
00003015  0000              add [rax],al
00003017  0000              add [rax],al
00003019  0000              add [rax],al
0000301B  0000              add [rax],al
0000301D  0000              add [rax],al
0000301F  0000              add [rax],al
00003021  0000              add [rax],al
00003023  0000              add [rax],al
00003025  0000              add [rax],al
00003027  0000              add [rax],al
00003029  0000              add [rax],al
0000302B  0000              add [rax],al
0000302D  0000              add [rax],al
0000302F  0000              add [rax],al
00003031  0000              add [rax],al
00003033  0000              add [rax],al
00003035  0000              add [rax],al
00003037  0000              add [rax],al
00003039  0000              add [rax],al
0000303B  0000              add [rax],al
0000303D  0000              add [rax],al
0000303F  0000              add [rax],al
00003041  0000              add [rax],al
00003043  0000              add [rax],al
00003045  0000              add [rax],al
00003047  0000              add [rax],al
00003049  0000              add [rax],al
0000304B  0000              add [rax],al
0000304D  0000              add [rax],al
0000304F  0000              add [rax],al
00003051  0000              add [rax],al
00003053  0000              add [rax],al
00003055  0000              add [rax],al
00003057  0000              add [rax],al
00003059  0000              add [rax],al
0000305B  0000              add [rax],al
0000305D  0000              add [rax],al
0000305F  0000              add [rax],al
00003061  0001              add [rcx],al
00003063  0102              add [rdx],eax
00003065  020404            add al,[rsp+rax]
00003068  0C0F              or al,0xf
0000306A  0810              or [rax],dl
0000306C  1020              adc [rax],ah
0000306E  0000              add [rax],al
00003070  0000              add [rax],al
00003072  0000              add [rax],al
00003074  0000              add [rax],al
00003076  0000              add [rax],al
00003078  0000              add [rax],al
0000307A  0000              add [rax],al
0000307C  0000              add [rax],al
0000307E  0000              add [rax],al
00003080  0000              add [rax],al
00003082  0000              add [rax],al
00003084  0000              add [rax],al
00003086  0000              add [rax],al
00003088  0000              add [rax],al
0000308A  0000              add [rax],al
0000308C  0000              add [rax],al
0000308E  0000              add [rax],al
00003090  0000              add [rax],al
00003092  0000              add [rax],al
00003094  0000              add [rax],al
00003096  0000              add [rax],al
00003098  0000              add [rax],al
0000309A  0000              add [rax],al
0000309C  0000              add [rax],al
0000309E  0000              add [rax],al
000030A0  0000              add [rax],al
000030A2  0000              add [rax],al
000030A4  0000              add [rax],al
000030A6  0000              add [rax],al
000030A8  0000              add [rax],al
000030AA  0000              add [rax],al
000030AC  0000              add [rax],al
000030AE  0000              add [rax],al
000030B0  0000              add [rax],al
000030B2  0000              add [rax],al
000030B4  0000              add [rax],al
000030B6  0000              add [rax],al
000030B8  0000              add [rax],al
000030BA  0000              add [rax],al
000030BC  0000              add [rax],al
000030BE  0000              add [rax],al
000030C0  0000              add [rax],al
000030C2  0000              add [rax],al
000030C4  0000              add [rax],al
000030C6  0000              add [rax],al
000030C8  0000              add [rax],al
000030CA  0000              add [rax],al
000030CC  0000              add [rax],al
000030CE  0000              add [rax],al
000030D0  0000              add [rax],al
000030D2  0000              add [rax],al
000030D4  0000              add [rax],al
000030D6  0000              add [rax],al
000030D8  0000              add [rax],al
000030DA  0000              add [rax],al
000030DC  0000              add [rax],al
000030DE  0000              add [rax],al
000030E0  0000              add [rax],al
000030E2  0000              add [rax],al
000030E4  0000              add [rax],al
000030E6  0000              add [rax],al
000030E8  0000              add [rax],al
000030EA  0000              add [rax],al
000030EC  0000              add [rax],al
000030EE  0000              add [rax],al
000030F0  0000              add [rax],al
000030F2  0000              add [rax],al
000030F4  0000              add [rax],al
000030F6  0000              add [rax],al
000030F8  0000              add [rax],al
000030FA  0000              add [rax],al
000030FC  0000              add [rax],al
000030FE  0000              add [rax],al
00003100  0000              add [rax],al
00003102  07                db 0x07
00003103  0404              add al,0x4
00003105  0404              add al,0x4
00003107  1F                db 0x1f
00003108  0404              add al,0x4
0000310A  0404              add al,0x4
0000310C  0407              add al,0x7
0000310E  0000              add [rax],al
00003110  0000              add [rax],al
00003112  0000              add [rax],al
00003114  0000              add [rax],al
00003116  0000              add [rax],al
00003118  0000              add [rax],al
0000311A  0000              add [rax],al
0000311C  0000              add [rax],al
0000311E  0000              add [rax],al
00003120  0000              add [rax],al
00003122  0000              add [rax],al
00003124  0000              add [rax],al
00003126  0000              add [rax],al
00003128  0000              add [rax],al
0000312A  0000              add [rax],al
0000312C  0000              add [rax],al
0000312E  0000              add [rax],al
00003130  0000              add [rax],al
00003132  0000              add [rax],al
00003134  0000              add [rax],al
00003136  0000              add [rax],al
00003138  0000              add [rax],al
0000313A  0000              add [rax],al
0000313C  0000              add [rax],al
0000313E  0000              add [rax],al
00003140  0000              add [rax],al
00003142  0000              add [rax],al
00003144  0000              add [rax],al
00003146  0000              add [rax],al
00003148  0000              add [rax],al
0000314A  0000              add [rax],al
0000314C  0000              add [rax],al
0000314E  0000              add [rax],al
00003150  0000              add [rax],al
00003152  0000              add [rax],al
00003154  0000              add [rax],al
00003156  0000              add [rax],al
00003158  0000              add [rax],al
0000315A  0000              add [rax],al
0000315C  0000              add [rax],al
0000315E  0000              add [rax],al
00003160  0000              add [rax],al
00003162  0000              add [rax],al
00003164  0000              add [rax],al
00003166  0000              add [rax],al
00003168  0000              add [rax],al
0000316A  0000              add [rax],al
0000316C  0000              add [rax],al
0000316E  0000              add [rax],al
00003170  0000              add [rax],al
00003172  0000              add [rax],al
00003174  080402            or [rdx+rax],al
00003177  0101              add [rcx],eax
00003179  030408            add eax,[rax+rcx]
0000317C  0000              add [rax],al
0000317E  0000              add [rax],al
00003180  0000              add [rax],al
00003182  030C08            add ecx,[rax+rcx]
00003185  1010              adc [rax],dl
00003187  1011              adc [rcx],dl
00003189  1112              adc [rdx],edx
0000318B  0A040B            or al,[rbx+rcx]
0000318E  0800              or [rax],al
00003190  0000              add [rax],al
00003192  0000              add [rax],al
00003194  0000              add [rax],al
00003196  0000              add [rax],al
00003198  0000              add [rax],al
0000319A  0000              add [rax],al
0000319C  0000              add [rax],al
0000319E  0000              add [rax],al
000031A0  0000              add [rax],al
000031A2  0000              add [rax],al
000031A4  0000              add [rax],al
000031A6  0000              add [rax],al
000031A8  0000              add [rax],al
000031AA  0000              add [rax],al
000031AC  0000              add [rax],al
000031AE  0000              add [rax],al
000031B0  0000              add [rax],al
000031B2  0000              add [rax],al
000031B4  0000              add [rax],al
000031B6  0000              add [rax],al
000031B8  0000              add [rax],al
000031BA  0000              add [rax],al
000031BC  0000              add [rax],al
000031BE  0000              add [rax],al
000031C0  0000              add [rax],al
000031C2  0000              add [rax],al
000031C4  0000              add [rax],al
000031C6  0000              add [rax],al
000031C8  0000              add [rax],al
000031CA  0000              add [rax],al
000031CC  0000              add [rax],al
000031CE  0000              add [rax],al
000031D0  0000              add [rax],al
000031D2  0000              add [rax],al
000031D4  0000              add [rax],al
000031D6  0000              add [rax],al
000031D8  0000              add [rax],al
000031DA  0000              add [rax],al
000031DC  0000              add [rax],al
000031DE  0000              add [rax],al
000031E0  0000              add [rax],al
000031E2  0404              add al,0x4
000031E4  07                db 0x07
000031E5  0404              add al,0x4
000031E7  0404              add al,0x4
000031E9  0404              add al,0x4
000031EB  07                db 0x07
000031EC  0404              add al,0x4
000031EE  0000              add [rax],al
000031F0  0000              add [rax],al
000031F2  0F08              invd
000031F4  0808              or [rax],cl
000031F6  080F              or [rdi],cl
000031F8  0808              or [rax],cl
000031FA  0808              or [rax],cl
000031FC  0E                db 0x0e
000031FD  0B00              or eax,[rax]
000031FF  0000              add [rax],al
00003201  0000              add [rax],al
00003203  0000              add [rax],al
00003205  0000              add [rax],al
00003207  0000              add [rax],al
00003209  0000              add [rax],al
0000320B  0000              add [rax],al
0000320D  0000              add [rax],al
0000320F  0000              add [rax],al
00003211  0000              add [rax],al
00003213  0000              add [rax],al
00003215  0000              add [rax],al
00003217  0000              add [rax],al
00003219  0000              add [rax],al
0000321B  0000              add [rax],al
0000321D  0000              add [rax],al
0000321F  0000              add [rax],al
00003221  0000              add [rax],al
00003223  0000              add [rax],al
00003225  0000              add [rax],al
00003227  0000              add [rax],al
00003229  0000              add [rax],al
0000322B  0000              add [rax],al
0000322D  0000              add [rax],al
0000322F  0000              add [rax],al
00003231  0000              add [rax],al
00003233  0000              add [rax],al
00003235  0000              add [rax],al
00003237  0000              add [rax],al
00003239  0000              add [rax],al
0000323B  0000              add [rax],al
0000323D  0000              add [rax],al
0000323F  0000              add [rax],al
00003241  0000              add [rax],al
00003243  0000              add [rax],al
00003245  0000              add [rax],al
00003247  0000              add [rax],al
00003249  0000              add [rax],al
0000324B  0000              add [rax],al
0000324D  0000              add [rax],al
0000324F  0000              add [rax],al
00003251  0000              add [rax],al
00003253  0000              add [rax],al
00003255  0000              add [rax],al
00003257  0000              add [rax],al
00003259  0000              add [rax],al
0000325B  0000              add [rax],al
0000325D  0000              add [rax],al
0000325F  0000              add [rax],al
00003261  0000              add [rax],al
00003263  0000              add [rax],al
00003265  0E                db 0x0e
00003266  1121              adc [rcx],esp
00003268  011F              add [rdi],ebx
0000326A  2121              and [rcx],esp
0000326C  231C00            and ebx,[rax+rax]
0000326F  0000              add [rax],al
00003271  0000              add [rax],al
00003273  0000              add [rax],al
00003275  0000              add [rax],al
00003277  0000              add [rax],al
00003279  0000              add [rax],al
0000327B  0000              add [rax],al
0000327D  0000              add [rax],al
0000327F  0000              add [rax],al
00003281  0000              add [rax],al
00003283  0000              add [rax],al
00003285  0000              add [rax],al
00003287  0000              add [rax],al
00003289  0000              add [rax],al
0000328B  0000              add [rax],al
0000328D  0000              add [rax],al
0000328F  0000              add [rax],al
00003291  0000              add [rax],al
00003293  0000              add [rax],al
00003295  0000              add [rax],al
00003297  0000              add [rax],al
00003299  0000              add [rax],al
0000329B  0000              add [rax],al
0000329D  0000              add [rax],al
0000329F  0000              add [rax],al
000032A1  0000              add [rax],al
000032A3  0000              add [rax],al
000032A5  0000              add [rax],al
000032A7  0000              add [rax],al
000032A9  0000              add [rax],al
000032AB  0000              add [rax],al
000032AD  0000              add [rax],al
000032AF  0000              add [rax],al
000032B1  0000              add [rax],al
000032B3  0000              add [rax],al
000032B5  0000              add [rax],al
000032B7  0000              add [rax],al
000032B9  0000              add [rax],al
000032BB  0000              add [rax],al
000032BD  0000              add [rax],al
000032BF  0000              add [rax],al
000032C1  0000              add [rax],al
000032C3  0000              add [rax],al
000032C5  0000              add [rax],al
000032C7  0000              add [rax],al
000032C9  0000              add [rax],al
000032CB  0000              add [rax],al
000032CD  0000              add [rax],al
000032CF  0000              add [rax],al
000032D1  0000              add [rax],al
000032D3  0000              add [rax],al
000032D5  0000              add [rax],al
000032D7  0000              add [rax],al
000032D9  0000              add [rax],al
000032DB  0000              add [rax],al
000032DD  0000              add [rax],al
000032DF  0000              add [rax],al
000032E1  0000              add [rax],al
000032E3  0000              add [rax],al
000032E5  0000              add [rax],al
000032E7  0000              add [rax],al
000032E9  0000              add [rax],al
000032EB  0000              add [rax],al
000032ED  0000              add [rax],al
000032EF  0000              add [rax],al
000032F1  0000              add [rax],al
000032F3  0000              add [rax],al
000032F5  0000              add [rax],al
000032F7  0000              add [rax],al
000032F9  0000              add [rax],al
000032FB  0000              add [rax],al
000032FD  0000              add [rax],al
000032FF  0000              add [rax],al
00003301  0001              add [rcx],al
00003303  0001              add [rcx],al
00003305  030404            add eax,[rsp+rax]
00003308  0808              or [rax],cl
0000330A  080404            or [rsp+rax],al
0000330D  0300              add eax,[rax]
0000330F  0000              add [rax],al
00003311  0000              add [rax],al
00003313  0000              add [rax],al
00003315  0000              add [rax],al
00003317  0000              add [rax],al
00003319  0000              add [rax],al
0000331B  0000              add [rax],al
0000331D  0000              add [rax],al
0000331F  0000              add [rax],al
00003321  0000              add [rax],al
00003323  0000              add [rax],al
00003325  0000              add [rax],al
00003327  0000              add [rax],al
00003329  0000              add [rax],al
0000332B  0000              add [rax],al
0000332D  0000              add [rax],al
0000332F  0000              add [rax],al
00003331  0000              add [rax],al
00003333  0000              add [rax],al
00003335  0000              add [rax],al
00003337  0000              add [rax],al
00003339  0000              add [rax],al
0000333B  0000              add [rax],al
0000333D  0000              add [rax],al
0000333F  0000              add [rax],al
00003341  0000              add [rax],al
00003343  0000              add [rax],al
00003345  0000              add [rax],al
00003347  0000              add [rax],al
00003349  0000              add [rax],al
0000334B  0000              add [rax],al
0000334D  0000              add [rax],al
0000334F  0000              add [rax],al
00003351  0000              add [rax],al
00003353  0000              add [rax],al
00003355  0000              add [rax],al
00003357  0000              add [rax],al
00003359  0000              add [rax],al
0000335B  0000              add [rax],al
0000335D  0000              add [rax],al
0000335F  0000              add [rax],al
00003361  0000              add [rax],al
00003363  0000              add [rax],al
00003365  0000              add [rax],al
00003367  0000              add [rax],al
00003369  0000              add [rax],al
0000336B  0000              add [rax],al
0000336D  0000              add [rax],al
0000336F  0000              add [rax],al
00003371  0000              add [rax],al
00003373  0000              add [rax],al
00003375  0000              add [rax],al
00003377  000F              add [rdi],cl
00003379  0000              add [rax],al
0000337B  0000              add [rax],al
0000337D  0000              add [rax],al
0000337F  0000              add [rax],al
00003381  0000              add [rax],al
00003383  0000              add [rax],al
00003385  030404            add eax,[rsp+rax]
00003388  0809              or [rcx],cl
0000338A  090506030400      or [rel 0x43696],eax
00003390  0000              add [rax],al
00003392  0000              add [rax],al
00003394  0000              add [rax],al
00003396  0000              add [rax],al
00003398  0000              add [rax],al
0000339A  0000              add [rax],al
0000339C  0000              add [rax],al
0000339E  0000              add [rax],al
000033A0  0000              add [rax],al
000033A2  0000              add [rax],al
000033A4  0000              add [rax],al
000033A6  0000              add [rax],al
000033A8  0000              add [rax],al
000033AA  0000              add [rax],al
000033AC  0000              add [rax],al
000033AE  0000              add [rax],al
000033B0  0000              add [rax],al
000033B2  0000              add [rax],al
000033B4  0000              add [rax],al
000033B6  0000              add [rax],al
000033B8  0000              add [rax],al
000033BA  0000              add [rax],al
000033BC  0000              add [rax],al
000033BE  0000              add [rax],al
000033C0  0000              add [rax],al
000033C2  0000              add [rax],al
000033C4  0000              add [rax],al
000033C6  0000              add [rax],al
000033C8  0000              add [rax],al
000033CA  0000              add [rax],al
000033CC  0000              add [rax],al
000033CE  0000              add [rax],al
000033D0  0000              add [rax],al
000033D2  0000              add [rax],al
000033D4  0000              add [rax],al
000033D6  0000              add [rax],al
000033D8  0000              add [rax],al
000033DA  0000              add [rax],al
000033DC  0000              add [rax],al
000033DE  0000              add [rax],al
000033E0  0000              add [rax],al
000033E2  0404              add al,0x4
000033E4  0407              add al,0x7
000033E6  0404              add al,0x4
000033E8  0404              add al,0x4
000033EA  0404              add al,0x4
000033EC  0407              add al,0x7
000033EE  0400              add al,0x0
000033F0  0000              add [rax],al
000033F2  0000              add [rax],al
000033F4  0000              add [rax],al
000033F6  0000              add [rax],al
000033F8  0000              add [rax],al
000033FA  0000              add [rax],al
000033FC  0000              add [rax],al
000033FE  0000              add [rax],al
00003400  1400              adc al,0x0
00003402  0000              add [rax],al
00003404  0000              add [rax],al
00003406  0000              add [rax],al
00003408  017A52            add [rdx+0x52],edi
0000340B  0001              add [rcx],al
0000340D  7810              js 0x341f
0000340F  011B              add [rbx],ebx
00003411  0C07              or al,0x7
00003413  089001000014      or [rax+0x14000001],dl
00003419  0000              add [rax],al
0000341B  001C00            add [rax+rax],bl
0000341E  0000              add [rax],al
00003420  70D4              jo 0x33f6
00003422  FF                db 0xff
00003423  FF                db 0xff
00003424  3D00000000        cmp eax,0x0
00003429  0000              add [rax],al
0000342B  0000              add [rax],al
0000342D  0000              add [rax],al
0000342F  001400            add [rax+rax],dl
00003432  0000              add [rax],al
00003434  3400              xor al,0x0
00003436  0000              add [rax],al
00003438  98                cwde
00003439  D4                db 0xd4
0000343A  FF                db 0xff
0000343B  FF                db 0xff
0000343C  3C00              cmp al,0x0
0000343E  0000              add [rax],al
00003440  0000              add [rax],al
00003442  0000              add [rax],al
00003444  0000              add [rax],al
00003446  0000              add [rax],al
00003448  1400              adc al,0x0
0000344A  0000              add [rax],al
0000344C  4C0000            o64 add [rax],r8b
0000344F  00C0              add al,al
00003451  D4                db 0xd4
00003452  FF                db 0xff
00003453  FF                db 0xff
00003454  3E0000            add [ds:rax],al
00003457  0000              add [rax],al
00003459  44                rex.r
0000345A  0E                db 0x0e
0000345B  38790E            cmp [rcx+0xe],bh
0000345E  0800              or [rax],al
00003460  2400              and al,0x0
00003462  0000              add [rax],al
00003464  640000            add [fs:rax],al
00003467  00E8              add al,ch
00003469  D4                db 0xd4
0000346A  FF                db 0xff
0000346B  FF4501            inc dword [rbp+0x1]
0000346E  0000              add [rax],al
00003470  00410E            add [rcx+0xe],al
00003473  108302460E20      adc [rbx+0x200e4602],al
00003479  02A30A0E1041      add ah,[rbx+0x41100e0a]
0000347F  C3                ret
00003480  0E                db 0x0e
00003481  08450B            or [rbp+0xb],al
00003484  0000              add [rax],al
00003486  0000              add [rax],al
00003488  1400              adc al,0x0
0000348A  0000              add [rax],al
0000348C  8C00              mov [rax],es
0000348E  0000              add [rax],al
00003490  10D6              adc dh,dl
00003492  FF                db 0xff
00003493  FF4100            inc dword [rcx+0x0]
00003496  0000              add [rax],al
00003498  0000              add [rax],al
0000349A  0000              add [rax],al
0000349C  0000              add [rax],al
0000349E  0000              add [rax],al
000034A0  1400              adc al,0x0
000034A2  0000              add [rax],al
000034A4  A4                movsb
000034A5  0000              add [rax],al
000034A7  0048D6            add [rax-0x2a],cl
000034AA  FF                db 0xff
000034AB  FFE6              jmp rsi
000034AD  0000              add [rax],al
000034AF  0000              add [rax],al
000034B1  41                rex.b
000034B2  0E                db 0x0e
000034B3  10830200004C      adc [rbx+0x4c000002],al
000034B9  0000              add [rax],al
000034BB  00BC00000020D7    add [rax+rax-0x28e00000],bh
000034C2  FF                db 0xff
000034C3  FF9700000000      call qword [rdi+0x0]
000034C9  51                push rcx
000034CA  0E                db 0x0e
000034CB  108F02450E18      adc [rdi+0x180e4502],cl
000034D1  8E03              mov es,[rbx]
000034D3  47                rex.rxb
000034D4  0E                db 0x0e
000034D5  208D04490E28      and [rbp+0x280e4904],cl
000034DB  8C05410E3086      mov [rel 0xffffffff86304322],es
000034E1  06                db 0x06
000034E2  43                rex.xb
000034E3  0E                db 0x0e
000034E4  388307460E60      cmp [rbx+0x600e4607],al
000034EA  025B0E            add bl,[rbx+0xe]
000034ED  3841C3            cmp [rcx-0x3d],al
000034F0  0E                db 0x0e
000034F1  3041C6            xor [rcx-0x3a],al
000034F4  0E                db 0x0e
000034F5  2842CC            sub [rdx-0x34],al
000034F8  0E                db 0x0e
000034F9  2042CD            and [rdx-0x33],al
000034FC  0E                db 0x0e
000034FD  1842CE            sbb [rdx-0x32],al
00003500  0E                db 0x0e
00003501  1042CF            adc [rdx-0x31],al
00003504  0E                db 0x0e
00003505  0800              or [rax],al
00003507  003C00            add [rax+rax],bh
0000350A  0000              add [rax],al
0000350C  0C01              or al,0x1
0000350E  0000              add [rax],al
00003510  70D7              jo 0x34e9
00003512  FF                db 0xff
00003513  FF540000          call qword [rax+rax+0x0]
00003517  0000              add [rax],al
00003519  42                rex.x
0000351A  0E                db 0x0e
0000351B  108E02440E18      adc [rsi+0x180e4402],cl
00003521  8D03              lea eax,[rbx]
00003523  42                rex.x
00003524  0E                db 0x0e
00003525  208C04410E2886    and [rsp+rax-0x79d7f1bf],cl
0000352C  05430E3083        add eax,0x83300e43
00003531  06                db 0x06
00003532  0240C3            add al,[rax-0x3d]
00003535  0E                db 0x0e
00003536  2841C6            sub [rcx-0x3a],al
00003539  0E                db 0x0e
0000353A  2042CC            and [rdx-0x34],al
0000353D  0E                db 0x0e
0000353E  1842CD            sbb [rdx-0x33],al
00003541  0E                db 0x0e
00003542  1042CE            adc [rdx-0x32],al
00003545  0E                db 0x0e
00003546  0800              or [rax],al
00003548  3C00              cmp al,0x0
0000354A  0000              add [rax],al
0000354C  4C0100            add [rax],r8
0000354F  0090D7FFFF69      add [rax+0x69ffffd7],dl
00003555  0100              add [rax],eax
00003557  0000              add [rax],al
00003559  42                rex.x
0000355A  0E                db 0x0e
0000355B  108E02540E18      adc [rsi+0x180e5402],cl
00003561  8D03              lea eax,[rbx]
00003563  46                rex.rx
00003564  0E                db 0x0e
00003565  208C04450E2886    and [rsp+rax-0x79d7f1bb],cl
0000356C  05440E3083        add eax,0x83300e44
00003571  06                db 0x06
00003572  033C01            add edi,[rcx+rax]
00003575  C3                ret
00003576  0E                db 0x0e
00003577  2841C6            sub [rcx-0x3a],al
0000357A  0E                db 0x0e
0000357B  2042CC            and [rdx-0x34],al
0000357E  0E                db 0x0e
0000357F  1842CD            sbb [rdx-0x33],al
00003582  0E                db 0x0e
00003583  1042CE            adc [rdx-0x32],al
00003586  0E                db 0x0e
00003587  083400            or [rax+rax],dh
0000358A  0000              add [rax],al
0000358C  8C01              mov [rcx],es
0000358E  0000              add [rax],al
00003590  C0D8FF            rcr al,byte 0xff
00003593  FF4E00            dec dword [rsi+0x0]
00003596  0000              add [rax],al
00003598  00420E            add [rdx+0xe],al
0000359B  108D02450E18      adc [rbp+0x180e4502],cl
000035A1  8C03              mov [rbx],es
000035A3  45                rex.rb
000035A4  0E                db 0x0e
000035A5  208604430E28      and [rsi+0x280e4304],al
000035AB  830579C30E2041    add dword [rel 0x200ef92b],byte +0x41
000035B2  C6                db 0xc6
000035B3  0E                db 0x0e
000035B4  1842CC            sbb [rdx-0x34],al
000035B7  0E                db 0x0e
000035B8  1042CD            adc [rdx-0x33],al
000035BB  0E                db 0x0e
000035BC  0800              or [rax],al
000035BE  0000              add [rax],al
000035C0  3C00              cmp al,0x0
000035C2  0000              add [rax],al
000035C4  C4                db 0xc4
000035C5  0100              add [rax],eax
000035C7  00D8              add al,bl
000035C9  D8FF              fdivr st7
000035CB  FFA500000000      jmp qword [rbp+0x0]
000035D1  42                rex.x
000035D2  0E                db 0x0e
000035D3  108D02480E18      adc [rbp+0x180e4802],cl
000035D9  8C03              mov [rbx],es
000035DB  45                rex.rb
000035DC  0E                db 0x0e
000035DD  208604430E28      and [rsi+0x280e4304],al
000035E3  8305470E800902    add dword [rel 0x9804431],byte +0x2
000035EA  850E              test [rsi],ecx
000035EC  2841C3            sub [rcx-0x3d],al
000035EF  0E                db 0x0e
000035F0  2041C6            and [rcx-0x3a],al
000035F3  0E                db 0x0e
000035F4  1842CC            sbb [rdx-0x34],al
000035F7  0E                db 0x0e
000035F8  1042CD            adc [rdx-0x33],al
000035FB  0E                db 0x0e
000035FC  0800              or [rax],al
000035FE  0000              add [rax],al
00003600  54                push rsp
00003601  0000              add [rax],al
00003603  000402            add [rdx+rax],al
00003606  0000              add [rax],al
00003608  68D9FFFF91        push qword 0xffffffff91ffffd9
0000360D  0500000042        add eax,0x42000000
00003612  0E                db 0x0e
00003613  108F024D0E18      adc [rdi+0x180e4d02],cl
00003619  8E03              mov es,[rbx]
0000361B  42                rex.x
0000361C  0E                db 0x0e
0000361D  208D04420E28      and [rbp+0x280e4204],cl
00003623  8C05410E3086      mov [rel 0xffffffff8630446a],es
00003629  06                db 0x06
0000362A  43                rex.xb
0000362B  0E                db 0x0e
0000362C  388307470EE0      cmp [rbx-0x1ff1b8f9],al
00003632  0103              add [rbx],eax
00003634  82                db 0x82
00003635  040A              add al,0xa
00003637  0E                db 0x0e
00003638  3841C3            cmp [rcx-0x3d],al
0000363B  0E                db 0x0e
0000363C  3041C6            xor [rcx-0x3a],al
0000363F  0E                db 0x0e
00003640  2842CC            sub [rdx-0x34],al
00003643  0E                db 0x0e
00003644  2042CD            and [rdx-0x33],al
00003647  0E                db 0x0e
00003648  1842CE            sbb [rdx-0x32],al
0000364B  0E                db 0x0e
0000364C  1042CF            adc [rdx-0x31],al
0000364F  0E                db 0x0e
00003650  08410B            or [rcx+0xb],al
00003653  0000              add [rax],al
00003655  0000              add [rax],al
00003657  00540000          add [rax+rax+0x0],dl
0000365B  005C0200          add [rdx+rax+0x0],bl
0000365F  00B0DEFFFFC0      add [rax-0x3f000022],dh
00003665  0800              or [rax],al
00003667  0000              add [rax],al
00003669  42                rex.x
0000366A  0E                db 0x0e
0000366B  108F02420E18      adc [rdi+0x180e4202],cl
00003671  8E03              mov es,[rbx]
00003673  42                rex.x
00003674  0E                db 0x0e
00003675  208D04420E28      and [rbp+0x280e4204],cl
0000367B  8C05410E3086      mov [rel 0xffffffff863044c2],es
00003681  06                db 0x06
00003682  44                rex.r
00003683  0E                db 0x0e
00003684  388307440E60      cmp [rbx+0x600e4407],al
0000368A  02F5              add dh,ch
0000368C  0A0E              or cl,[rsi]
0000368E  3841C3            cmp [rcx-0x3d],al
00003691  0E                db 0x0e
00003692  3041C6            xor [rcx-0x3a],al
00003695  0E                db 0x0e
00003696  2842CC            sub [rdx-0x34],al
00003699  0E                db 0x0e
0000369A  2042CD            and [rdx-0x33],al
0000369D  0E                db 0x0e
0000369E  1842CE            sbb [rdx-0x32],al
000036A1  0E                db 0x0e
000036A2  1042CF            adc [rdx-0x31],al
000036A5  0E                db 0x0e
000036A6  08480B            or [rax+0xb],cl
000036A9  0000              add [rax],al
000036AB  0000              add [rax],al
000036AD  0000              add [rax],al
000036AF  001400            add [rax+rax],dl
000036B2  0000              add [rax],al
000036B4  B402              mov ah,0x2
000036B6  0000              add [rax],al
000036B8  18E7              sbb bh,ah
000036BA  FF                db 0xff
000036BB  FF4300            inc dword [rbx+0x0]
000036BE  0000              add [rax],al
000036C0  00440E60          add [rsi+rcx+0x60],al
000036C4  7E0E              jng 0x36d4
000036C6  0800              or [rax],al
000036C8  1400              adc al,0x0
000036CA  0000              add [rax],al
000036CC  CC                int3
000036CD  0200              add al,[rax]
000036CF  0050E7            add [rax-0x19],dl
000036D2  FF                db 0xff
000036D3  FF32              push qword [rdx]
000036D5  0000              add [rax],al
000036D7  0000              add [rax],al
000036D9  0000              add [rax],al
000036DB  0000              add [rax],al
000036DD  0000              add [rax],al
000036DF  00                db 0x00
