
tmp/Main.o:     file format elf64-x86-64


Disassembly of section .text:

0000000000000000 <ClcMain>:
   0:	53                   	push   rbx
   1:	b9 9a 00 00 00       	mov    ecx,0x9a
   6:	ba ff ff ff ff       	mov    edx,0xffffffff
   b:	31 f6                	xor    esi,esi
   d:	bf 08 60 60 00       	mov    edi,0x606008
  12:	48 c7 04 25 00 60 60 	mov    QWORD PTR ds:0x606000,0x0
  19:	00 00 00 00 00 
  1e:	e8 00 00 00 00       	call   23 <ClcMain+0x23>
  23:	b9 92 00 00 00       	mov    ecx,0x92
  28:	ba ff ff ff ff       	mov    edx,0xffffffff
  2d:	31 f6                	xor    esi,esi
  2f:	bf 10 60 60 00       	mov    edi,0x606010
  34:	bb 00 60 62 00       	mov    ebx,0x626000
  39:	e8 00 00 00 00       	call   3e <ClcMain+0x3e>
  3e:	ba e7 ff 00 00       	mov    edx,0xffe7
  43:	31 f6                	xor    esi,esi
  45:	bf 18 60 60 00       	mov    edi,0x606018
  4a:	e8 00 00 00 00       	call   4f <ClcMain+0x4f>
  4f:	be 00 60 60 00       	mov    esi,0x606000
  54:	bf ff ff 00 00       	mov    edi,0xffff
  59:	e8 00 00 00 00       	call   5e <ClcMain+0x5e>
  5e:	45 31 c0             	xor    r8d,r8d
  61:	31 c9                	xor    ecx,ecx
  63:	48 89 df             	mov    rdi,rbx
  66:	41 b9 0e 00 00 00    	mov    r9d,0xe
  6c:	ba 08 00 00 00       	mov    edx,0x8
  71:	be 00 00 00 00       	mov    esi,0x0
  76:	48 83 c3 10          	add    rbx,0x10
  7a:	e8 00 00 00 00       	call   7f <ClcMain+0x7f>
  7f:	48 81 fb 00 70 62 00 	cmp    rbx,0x627000
  86:	75 d6                	jne    5e <ClcMain+0x5e>
  88:	be 00 60 62 00       	mov    esi,0x626000
  8d:	bf 00 10 00 00       	mov    edi,0x1000
  92:	e8 00 00 00 00       	call   97 <ClcMain+0x97>
  97:	b9 00 00 00 00       	mov    ecx,0x0
  9c:	ba ff 07 00 00       	mov    edx,0x7ff
  a1:	be 64 00 00 00       	mov    esi,0x64
  a6:	31 ff                	xor    edi,edi
  a8:	e8 00 00 00 00       	call   ad <ClcMain+0xad>
  ad:	fb                   	sti    
  ae:	cd 77                	int    0x77
  b0:	fa                   	cli    
  b1:	b9 00 00 00 00       	mov    ecx,0x0
  b6:	ba ff 07 00 00       	mov    edx,0x7ff
  bb:	be 74 00 00 00       	mov    esi,0x74
  c0:	31 ff                	xor    edi,edi
  c2:	e8 00 00 00 00       	call   c7 <ClcMain+0xc7>
  c7:	66 0f 1f 84 00 00 00 	nop    WORD PTR [rax+rax*1+0x0]
  ce:	00 00 
  d0:	b9 00 00 00 00       	mov    ecx,0x0
  d5:	ba ff 07 00 00       	mov    edx,0x7ff
  da:	31 f6                	xor    esi,esi
  dc:	31 ff                	xor    edi,edi
  de:	e8 00 00 00 00       	call   e3 <ClcMain+0xe3>
  e3:	f4                   	hlt    
  e4:	eb ea                	jmp    d0 <ClcMain+0xd0>
  e6:	66 2e 0f 1f 84 00 00 	nop    WORD PTR cs:[rax+rax*1+0x0]
  ed:	00 00 00 

00000000000000f0 <PrintMemoryEntry>:
  f0:	8b 04 25 fc 0f 00 00 	mov    eax,DWORD PTR ds:0xffc
  f7:	85 c0                	test   eax,eax
  f9:	0f 84 86 00 00 00    	je     185 <PrintMemoryEntry+0x95>
  ff:	41 57                	push   r15
 101:	83 e8 01             	sub    eax,0x1
 104:	41 56                	push   r14
 106:	4c 8d 74 40 03       	lea    r14,[rax+rax*2+0x3]
 10b:	41 55                	push   r13
 10d:	49 c1 e6 03          	shl    r14,0x3
 111:	41 89 fd             	mov    r13d,edi
 114:	41 54                	push   r12
 116:	55                   	push   rbp
 117:	89 f5                	mov    ebp,esi
 119:	53                   	push   rbx
 11a:	31 db                	xor    ebx,ebx
 11c:	48 83 ec 28          	sub    rsp,0x28
 120:	44 8b a3 10 10 00 00 	mov    r12d,DWORD PTR [rbx+0x1010]
 127:	44 8b bb 14 10 00 00 	mov    r15d,DWORD PTR [rbx+0x1014]
 12e:	44 89 e7             	mov    edi,r12d
 131:	e8 00 00 00 00       	call   136 <PrintMemoryEntry+0x46>
 136:	4c 8b 83 00 10 00 00 	mov    r8,QWORD PTR [rbx+0x1000]
 13d:	89 ee                	mov    esi,ebp
 13f:	b9 00 00 00 00       	mov    ecx,0x0
 144:	ba ff 07 00 00       	mov    edx,0x7ff
 149:	44 89 ef             	mov    edi,r13d
 14c:	83 c5 10             	add    ebp,0x10
 14f:	4d 89 c1             	mov    r9,r8
 152:	4c 03 8b 08 10 00 00 	add    r9,QWORD PTR [rbx+0x1008]
 159:	48 89 04 24          	mov    QWORD PTR [rsp],rax
 15d:	44 89 7c 24 10       	mov    DWORD PTR [rsp+0x10],r15d
 162:	31 c0                	xor    eax,eax
 164:	44 89 64 24 08       	mov    DWORD PTR [rsp+0x8],r12d
 169:	48 83 c3 18          	add    rbx,0x18
 16d:	e8 00 00 00 00       	call   172 <PrintMemoryEntry+0x82>
 172:	4c 39 f3             	cmp    rbx,r14
 175:	75 a9                	jne    120 <PrintMemoryEntry+0x30>
 177:	48 83 c4 28          	add    rsp,0x28
 17b:	5b                   	pop    rbx
 17c:	5d                   	pop    rbp
 17d:	41 5c                	pop    r12
 17f:	41 5d                	pop    r13
 181:	41 5e                	pop    r14
 183:	41 5f                	pop    r15
 185:	f3 c3                	repz ret 
